Archive member included because of file (symbol)

build/components/finsh/libfinsh.a(cmd.o)
                              build/src/scheduler.o (list_thread)
build/components/finsh/libfinsh.a(finsh_var.o)
                              build/components/finsh/libfinsh.a(cmd.o) (global_sysvar_list)
build/components/finsh/libfinsh.a(finsh_vm.o)
                              build/components/finsh/libfinsh.a(cmd.o) (global_syscall_list)
build/components/finsh/libfinsh.a(shell.o)
                              build/bsp/startup.o (finsh_set_device)
build/components/finsh/libfinsh.a(symbol.o)
                              build/components/finsh/libfinsh.a(cmd.o) (_syscall_table_begin)
build/components/finsh/libfinsh.a(finsh_compiler.o)
                              build/components/finsh/libfinsh.a(shell.o) (finsh_compiler_run)
build/components/finsh/libfinsh.a(finsh_error.o)
                              build/components/finsh/libfinsh.a(finsh_compiler.o) (finsh_error_set)
build/components/finsh/libfinsh.a(finsh_init.o)
                              build/components/finsh/libfinsh.a(shell.o) (finsh_init)
build/components/finsh/libfinsh.a(finsh_node.o)
                              build/components/finsh/libfinsh.a(finsh_init.o) (finsh_node_init)
build/components/finsh/libfinsh.a(finsh_ops.o)
                              build/components/finsh/libfinsh.a(finsh_vm.o) (op_table)
build/components/finsh/libfinsh.a(finsh_parser.o)
                              build/components/finsh/libfinsh.a(shell.o) (finsh_parser_run)
build/components/finsh/libfinsh.a(finsh_token.o)
                              build/components/finsh/libfinsh.a(finsh_parser.o) (finsh_token_init)
build/components/finsh/libfinsh.a(finsh_heap.o)
                              build/components/finsh/libfinsh.a(finsh_init.o) (finsh_heap_init)
/opt/arm-2012.03/bin/../lib/gcc/arm-none-eabi/4.6.3/thumb2/libgcc.a(_arm_addsubdf3.o)
                              build/components/libc/minilibc/math.o (__aeabi_dsub)
/opt/arm-2012.03/bin/../lib/gcc/arm-none-eabi/4.6.3/thumb2/libgcc.a(_arm_muldivdf3.o)
                              build/components/libc/minilibc/math.o (__aeabi_dmul)
/opt/arm-2012.03/bin/../lib/gcc/arm-none-eabi/4.6.3/thumb2/libgcc.a(_arm_fixdfsi.o)
                              build/components/libc/minilibc/math.o (__aeabi_d2iz)

Allocating common symbols
Common symbol       size              file

rt_interrupt_to_thread
                    0x4               build/libcpu/arm/cortex-m3/cpuport.o
rt_interrupt_from_thread
                    0x4               build/libcpu/arm/cortex-m3/cpuport.o
global_sysvar_list  0x4               build/components/finsh/libfinsh.a(finsh_var.o)
finsh_heap          0x80              build/components/finsh/libfinsh.a(finsh_heap.o)
shell               0x4               build/components/finsh/libfinsh.a(shell.o)
rt_thread_switch_interrupt_flag
                    0x4               build/libcpu/arm/cortex-m3/cpuport.o
text_segment        0x80              build/components/finsh/libfinsh.a(finsh_vm.o)
finsh_compile_pc    0x4               build/components/finsh/libfinsh.a(finsh_compiler.o)
finsh_vm_stack      0x100             build/components/finsh/libfinsh.a(finsh_vm.o)
global_errno        0x1               build/components/finsh/libfinsh.a(finsh_error.o)
rt_thread_priority_table
                    0x100             build/src/scheduler.o
rt_object_put_hook  0x4               build/src/object.o
rt_current_priority
                    0x1               build/src/scheduler.o
rt_interrupt_nest   0x1               build/src/irq.o
rt_object_take_hook
                    0x4               build/src/object.o
rt_current_thread   0x4               build/src/scheduler.o
rt_thread_ready_priority_group
                    0x4               build/src/scheduler.o
rt_thread_defunct   0x8               build/src/scheduler.o
global_node_table   0x140             build/components/finsh/libfinsh.a(finsh_node.o)
finsh_compile_sp    0x4               build/components/finsh/libfinsh.a(finsh_compiler.o)
uart1_int_rx        0x48              build/bsp/usart.o
finsh_pc            0x4               build/components/finsh/libfinsh.a(finsh_vm.o)
rt_object_trytake_hook
                    0x4               build/src/object.o
uart1_device        0x40              build/bsp/usart.o
finsh_sp            0x4               build/components/finsh/libfinsh.a(finsh_vm.o)
global_variable     0xc0              build/components/finsh/libfinsh.a(finsh_var.o)

Discarded input sections

 .text          0x00000000        0x0 /opt/arm-2012.03/bin/../lib/gcc/arm-none-eabi/4.6.3/thumb2/crti.o
 .data          0x00000000        0x0 /opt/arm-2012.03/bin/../lib/gcc/arm-none-eabi/4.6.3/thumb2/crti.o
 .bss           0x00000000        0x0 /opt/arm-2012.03/bin/../lib/gcc/arm-none-eabi/4.6.3/thumb2/crti.o
 .init          0x00000000        0x4 /opt/arm-2012.03/bin/../lib/gcc/arm-none-eabi/4.6.3/thumb2/crti.o
 .fini          0x00000000        0x4 /opt/arm-2012.03/bin/../lib/gcc/arm-none-eabi/4.6.3/thumb2/crti.o
 .ARM.attributes
                0x00000000       0x1b /opt/arm-2012.03/bin/../lib/gcc/arm-none-eabi/4.6.3/thumb2/crti.o
 .text          0x00000000       0x68 /opt/arm-2012.03/bin/../lib/gcc/arm-none-eabi/4.6.3/thumb2/crtbegin.o
 .data          0x00000000        0x4 /opt/arm-2012.03/bin/../lib/gcc/arm-none-eabi/4.6.3/thumb2/crtbegin.o
 .bss           0x00000000       0x1c /opt/arm-2012.03/bin/../lib/gcc/arm-none-eabi/4.6.3/thumb2/crtbegin.o
 .init_array    0x00000000        0x4 /opt/arm-2012.03/bin/../lib/gcc/arm-none-eabi/4.6.3/thumb2/crtbegin.o
 .fini_array    0x00000000        0x4 /opt/arm-2012.03/bin/../lib/gcc/arm-none-eabi/4.6.3/thumb2/crtbegin.o
 .eh_frame      0x00000000        0x0 /opt/arm-2012.03/bin/../lib/gcc/arm-none-eabi/4.6.3/thumb2/crtbegin.o
 .jcr           0x00000000        0x0 /opt/arm-2012.03/bin/../lib/gcc/arm-none-eabi/4.6.3/thumb2/crtbegin.o
 .ARM.attributes
                0x00000000       0x2b /opt/arm-2012.03/bin/../lib/gcc/arm-none-eabi/4.6.3/thumb2/crtbegin.o
 .text          0x00000000        0x0 build/bsp/application.o
 .data          0x00000000        0x0 build/bsp/application.o
 .bss           0x00000000        0x0 build/bsp/application.o
 .text          0x00000000        0x0 build/bsp/startup.o
 .data          0x00000000        0x0 build/bsp/startup.o
 .bss           0x00000000        0x0 build/bsp/startup.o
 .text          0x00000000        0x0 build/bsp/board.o
 .data          0x00000000        0x0 build/bsp/board.o
 .bss           0x00000000        0x0 build/bsp/board.o
 .text          0x00000000        0x0 build/bsp/stm32f10x_it.o
 .data          0x00000000        0x0 build/bsp/stm32f10x_it.o
 .bss           0x00000000        0x0 build/bsp/stm32f10x_it.o
 .text          0x00000000        0x0 build/bsp/rtc.o
 .data          0x00000000        0x0 build/bsp/rtc.o
 .bss           0x00000000        0x0 build/bsp/rtc.o
 .text          0x00000000        0x0 build/bsp/usart.o
 .data          0x00000000        0x0 build/bsp/usart.o
 .bss           0x00000000        0x0 build/bsp/usart.o
 .text          0x00000000        0x0 build/bsp/serial.o
 .data          0x00000000        0x0 build/bsp/serial.o
 .bss           0x00000000        0x0 build/bsp/serial.o
 .text.rt_hw_serial_dma_tx_isr
                0x00000000      0x114 build/bsp/serial.o
 .rodata.__FUNCTION__.7162
                0x00000000       0x18 build/bsp/serial.o
 .text          0x00000000        0x0 build/bsp/led.o
 .data          0x00000000        0x0 build/bsp/led.o
 .bss           0x00000000        0x0 build/bsp/led.o
 .text          0x00000000        0x0 build/src/clock.o
 .data          0x00000000        0x0 build/src/clock.o
 .bss           0x00000000        0x0 build/src/clock.o
 .text.rt_tick_set
                0x00000000       0x28 build/src/clock.o
 .text.rt_tick_from_millisecond
                0x00000000       0x38 build/src/clock.o
 .text          0x00000000        0x0 build/src/device.o
 .data          0x00000000        0x0 build/src/device.o
 .bss           0x00000000        0x0 build/src/device.o
 .text.rt_device_unregister
                0x00000000       0x54 build/src/device.o
 .text.rt_device_init
                0x00000000       0xa0 build/src/device.o
 .text.rt_device_set_tx_complete
                0x00000000       0x54 build/src/device.o
 .rodata.__FUNCTION__.4760
                0x00000000       0x1c build/src/device.o
 .rodata.__FUNCTION__.4668
                0x00000000       0x10 build/src/device.o
 .rodata.__FUNCTION__.4632
                0x00000000       0x18 build/src/device.o
 .text          0x00000000        0x0 build/src/idle.o
 .data          0x00000000        0x0 build/src/idle.o
 .bss           0x00000000        0x0 build/src/idle.o
 .text.rt_thread_idle_sethook
                0x00000000       0x20 build/src/idle.o
 .text          0x00000000        0x0 build/src/ipc.o
 .data          0x00000000        0x0 build/src/ipc.o
 .bss           0x00000000        0x0 build/src/ipc.o
 .text.rt_ipc_list_resume_all
                0x00000000       0x4c build/src/ipc.o
 .text.rt_sem_detach
                0x00000000       0x60 build/src/ipc.o
 .text.rt_sem_create
                0x00000000       0xa0 build/src/ipc.o
 .text.rt_sem_delete
                0x00000000       0xb8 build/src/ipc.o
 .text.rt_sem_trytake
                0x00000000       0x20 build/src/ipc.o
 .text.rt_sem_control
                0x00000000       0x88 build/src/ipc.o
 .text.rt_mutex_init
                0x00000000       0x8c build/src/ipc.o
 .text.rt_mutex_detach
                0x00000000       0x60 build/src/ipc.o
 .text.rt_mutex_create
                0x00000000       0xb4 build/src/ipc.o
 .text.rt_mutex_delete
                0x00000000       0xb8 build/src/ipc.o
 .text.rt_mutex_take
                0x00000000      0x1e4 build/src/ipc.o
 .text.rt_mutex_release
                0x00000000      0x11c build/src/ipc.o
 .text.rt_mutex_control
                0x00000000       0x20 build/src/ipc.o
 .text.rt_event_init
                0x00000000       0x74 build/src/ipc.o
 .text.rt_event_detach
                0x00000000       0x60 build/src/ipc.o
 .text.rt_event_create
                0x00000000       0x9c build/src/ipc.o
 .text.rt_event_delete
                0x00000000       0xb8 build/src/ipc.o
 .text.rt_event_send
                0x00000000      0x160 build/src/ipc.o
 .text.rt_event_recv
                0x00000000      0x1fc build/src/ipc.o
 .text.rt_event_control
                0x00000000       0x84 build/src/ipc.o
 .text.rt_mb_init
                0x00000000       0xa0 build/src/ipc.o
 .text.rt_mb_detach
                0x00000000       0x6c build/src/ipc.o
 .text.rt_mb_create
                0x00000000       0xec build/src/ipc.o
 .text.rt_mb_delete
                0x00000000       0xcc build/src/ipc.o
 .text.rt_mb_send_wait
                0x00000000      0x230 build/src/ipc.o
 .text.rt_mb_send
                0x00000000       0x24 build/src/ipc.o
 .text.rt_mb_recv
                0x00000000      0x270 build/src/ipc.o
 .text.rt_mb_control
                0x00000000       0xa0 build/src/ipc.o
 .text.rt_mq_init
                0x00000000       0xf4 build/src/ipc.o
 .text.rt_mq_detach
                0x00000000       0x60 build/src/ipc.o
 .text.rt_mq_create
                0x00000000      0x138 build/src/ipc.o
 .text.rt_mq_delete
                0x00000000       0xc0 build/src/ipc.o
 .text.rt_mq_send
                0x00000000      0x1a4 build/src/ipc.o
 .text.rt_mq_urgent
                0x00000000      0x194 build/src/ipc.o
 .text.rt_mq_recv
                0x00000000      0x2b0 build/src/ipc.o
 .text.rt_mq_control
                0x00000000       0xbc build/src/ipc.o
 .rodata.__FUNCTION__.5189
                0x00000000       0x10 build/src/ipc.o
 .rodata.__FUNCTION__.5161
                0x00000000        0xc build/src/ipc.o
 .rodata.__FUNCTION__.5138
                0x00000000       0x10 build/src/ipc.o
 .rodata.__FUNCTION__.5118
                0x00000000        0xc build/src/ipc.o
 .rodata.__FUNCTION__.5101
                0x00000000       0x10 build/src/ipc.o
 .rodata.__FUNCTION__.5089
                0x00000000       0x10 build/src/ipc.o
 .rodata.__FUNCTION__.5075
                0x00000000       0x10 build/src/ipc.o
 .rodata.__FUNCTION__.5064
                0x00000000        0xc build/src/ipc.o
 .rodata.__FUNCTION__.5047
                0x00000000       0x10 build/src/ipc.o
 .rodata.__FUNCTION__.5028
                0x00000000        0xc build/src/ipc.o
 .rodata.__FUNCTION__.5003
                0x00000000       0x10 build/src/ipc.o
 .rodata.__FUNCTION__.4985
                0x00000000       0x10 build/src/ipc.o
 .rodata.__FUNCTION__.4976
                0x00000000       0x10 build/src/ipc.o
 .rodata.__FUNCTION__.4965
                0x00000000       0x10 build/src/ipc.o
 .rodata.__FUNCTION__.4957
                0x00000000        0xc build/src/ipc.o
 .rodata.__FUNCTION__.4945
                0x00000000       0x14 build/src/ipc.o
 .rodata.__FUNCTION__.4929
                0x00000000       0x10 build/src/ipc.o
 .rodata.__FUNCTION__.4911
                0x00000000       0x10 build/src/ipc.o
 .rodata.__FUNCTION__.4892
                0x00000000       0x10 build/src/ipc.o
 .rodata.__FUNCTION__.4883
                0x00000000       0x10 build/src/ipc.o
 .rodata.__FUNCTION__.4873
                0x00000000       0x10 build/src/ipc.o
 .rodata.__FUNCTION__.4865
                0x00000000       0x10 build/src/ipc.o
 .rodata.__FUNCTION__.4839
                0x00000000       0x10 build/src/ipc.o
 .rodata.__FUNCTION__.4823
                0x00000000       0x10 build/src/ipc.o
 .rodata.__FUNCTION__.4814
                0x00000000       0x10 build/src/ipc.o
 .rodata.__FUNCTION__.4804
                0x00000000       0x10 build/src/ipc.o
 .rodata.__FUNCTION__.4796
                0x00000000       0x10 build/src/ipc.o
 .rodata.__FUNCTION__.4785
                0x00000000       0x10 build/src/ipc.o
 .rodata.__FUNCTION__.4745
                0x00000000       0x10 build/src/ipc.o
 .rodata.__FUNCTION__.4736
                0x00000000       0x10 build/src/ipc.o
 .rodata.__FUNCTION__.4725
                0x00000000       0x10 build/src/ipc.o
 .text          0x00000000        0x0 build/src/irq.o
 .data          0x00000000        0x0 build/src/irq.o
 .bss           0x00000000        0x0 build/src/irq.o
 .text          0x00000000        0x0 build/src/kservice.o
 .data          0x00000000        0x0 build/src/kservice.o
 .bss           0x00000000        0x0 build/src/kservice.o
 .text.rt_get_errno
                0x00000000       0x44 build/src/kservice.o
 .text._rt_errno
                0x00000000       0x40 build/src/kservice.o
 .text.rt_memmove
                0x00000000       0xb0 build/src/kservice.o
 .text.rt_memcmp
                0x00000000       0x60 build/src/kservice.o
 .text.rt_strstr
                0x00000000       0x68 build/src/kservice.o
 .text.rt_strcasecmp
                0x00000000       0x70 build/src/kservice.o
 .text.rt_strcmp
                0x00000000       0x48 build/src/kservice.o
 .text.rt_strdup
                0x00000000       0x40 build/src/kservice.o
 .text.rt_snprintf
                0x00000000       0x34 build/src/kservice.o
 .text.rt_vsprintf
                0x00000000       0x28 build/src/kservice.o
 .text.rt_sprintf
                0x00000000       0x30 build/src/kservice.o
 .text.rt_console_get_device
                0x00000000       0x18 build/src/kservice.o
 .text.rt_malloc_align
                0x00000000       0x7c build/src/kservice.o
 .text.rt_free_align
                0x00000000       0x20 build/src/kservice.o
 .text          0x00000000        0x0 build/src/mem.o
 .data          0x00000000        0x0 build/src/mem.o
 .bss           0x00000000        0x0 build/src/mem.o
 .text.rt_malloc_sethook
                0x00000000       0x20 build/src/mem.o
 .text.rt_free_sethook
                0x00000000       0x20 build/src/mem.o
 .text.rt_realloc
                0x00000000      0x1fc build/src/mem.o
 .text.rt_calloc
                0x00000000       0x98 build/src/mem.o
 .text.rt_memory_info
                0x00000000       0x54 build/src/mem.o
 .rodata.__FUNCTION__.4773
                0x00000000        0xc build/src/mem.o
 .rodata.__FUNCTION__.4762
                0x00000000        0xc build/src/mem.o
 .text          0x00000000        0x0 build/src/mempool.o
 .data          0x00000000        0x0 build/src/mempool.o
 .bss           0x00000000        0x0 build/src/mempool.o
 .text.rt_list_isempty
                0x00000000       0x24 build/src/mempool.o
 .bss.rt_mp_free_hook
                0x00000000        0x4 build/src/mempool.o
 .text.rt_mp_alloc_sethook
                0x00000000       0x20 build/src/mempool.o
 .text.rt_mp_free_sethook
                0x00000000       0x20 build/src/mempool.o
 .text.rt_mp_detach
                0x00000000       0xa0 build/src/mempool.o
 .text.rt_mp_create
                0x00000000      0x158 build/src/mempool.o
 .text.rt_mp_delete
                0x00000000      0x100 build/src/mempool.o
 .text.rt_mp_free
                0x00000000       0x9c build/src/mempool.o
 .rodata.__FUNCTION__.4745
                0x00000000       0x10 build/src/mempool.o
 .rodata.__FUNCTION__.4731
                0x00000000       0x10 build/src/mempool.o
 .rodata.__FUNCTION__.4715
                0x00000000       0x10 build/src/mempool.o
 .text          0x00000000        0x0 build/src/object.o
 .data          0x00000000        0x0 build/src/object.o
 .bss           0x00000000        0x0 build/src/object.o
 .text.rt_object_attach_sethook
                0x00000000       0x20 build/src/object.o
 .text.rt_object_detach_sethook
                0x00000000       0x20 build/src/object.o
 .text.rt_object_trytake_sethook
                0x00000000       0x20 build/src/object.o
 .text.rt_object_take_sethook
                0x00000000       0x20 build/src/object.o
 .text.rt_object_put_sethook
                0x00000000       0x20 build/src/object.o
 .text.rt_object_get_information
                0x00000000       0x28 build/src/object.o
 .text.rt_object_find
                0x00000000       0xc4 build/src/object.o
 .rodata.__FUNCTION__.4772
                0x00000000       0x10 build/src/object.o
 .text          0x00000000        0x0 build/src/scheduler.o
 .data          0x00000000        0x0 build/src/scheduler.o
 .bss           0x00000000        0x0 build/src/scheduler.o
 .text.rt_scheduler_sethook
                0x00000000       0x20 build/src/scheduler.o
 .text          0x00000000        0x0 build/src/thread.o
 .data          0x00000000        0x0 build/src/thread.o
 .bss           0x00000000        0x0 build/src/thread.o
 .text.rt_thread_detach
                0x00000000       0x94 build/src/thread.o
 .text.rt_thread_delete
                0x00000000       0x88 build/src/thread.o
 .text.rt_thread_control
                0x00000000       0xd8 build/src/thread.o
 .text.rt_thread_find
                0x00000000       0x84 build/src/thread.o
 .rodata.__FUNCTION__.4793
                0x00000000       0x14 build/src/thread.o
 .rodata.__FUNCTION__.4764
                0x00000000       0x14 build/src/thread.o
 .rodata.__FUNCTION__.4755
                0x00000000       0x14 build/src/thread.o
 .text          0x00000000        0x0 build/src/timer.o
 .data          0x00000000        0x0 build/src/timer.o
 .bss           0x00000000        0x0 build/src/timer.o
 .text.rt_timer_timeout_sethook
                0x00000000       0x20 build/src/timer.o
 .text.rt_timer_list_next_timeout
                0x00000000       0x34 build/src/timer.o
 .text.rt_timer_detach
                0x00000000       0x68 build/src/timer.o
 .text.rt_timer_create
                0x00000000       0x44 build/src/timer.o
 .text.rt_timer_delete
                0x00000000       0x68 build/src/timer.o
 .text.rt_timer_stop
                0x00000000       0xa0 build/src/timer.o
 .text.rt_timer_next_timeout_tick
                0x00000000       0x18 build/src/timer.o
 .rodata.__FUNCTION__.4764
                0x00000000       0x10 build/src/timer.o
 .rodata.__FUNCTION__.4736
                0x00000000       0x10 build/src/timer.o
 .rodata.__FUNCTION__.4718
                0x00000000       0x10 build/src/timer.o
 .text          0x00000000        0x0 build/libcpu/arm/cortex-m3/cpuport.o
 .data          0x00000000        0x0 build/libcpu/arm/cortex-m3/cpuport.o
 .bss           0x00000000        0x0 build/libcpu/arm/cortex-m3/cpuport.o
 .text.rt_hw_cpu_shutdown
                0x00000000       0x48 build/libcpu/arm/cortex-m3/cpuport.o
 .rodata.__FUNCTION__.4635
                0x00000000       0x14 build/libcpu/arm/cortex-m3/cpuport.o
 .data          0x00000000        0x0 build/libcpu/arm/cortex-m3/context_gcc.o
 .bss           0x00000000        0x0 build/libcpu/arm/cortex-m3/context_gcc.o
 .text          0x00000000        0x0 build/libcpu/arm/common/backtrace.o
 .data          0x00000000        0x0 build/libcpu/arm/common/backtrace.o
 .bss           0x00000000        0x0 build/libcpu/arm/common/backtrace.o
 .rodata        0x00000000       0x1c build/libcpu/arm/common/backtrace.o
 .text.rt_hw_backtrace
                0x00000000       0x8c build/libcpu/arm/common/backtrace.o
 .debug_info    0x00000000       0xd2 build/libcpu/arm/common/backtrace.o
 .debug_abbrev  0x00000000       0x93 build/libcpu/arm/common/backtrace.o
 .debug_loc     0x00000000       0x38 build/libcpu/arm/common/backtrace.o
 .debug_aranges
                0x00000000       0x20 build/libcpu/arm/common/backtrace.o
 .debug_ranges  0x00000000       0x10 build/libcpu/arm/common/backtrace.o
 .debug_line    0x00000000       0xbd build/libcpu/arm/common/backtrace.o
 .debug_str     0x00000000      0x114 build/libcpu/arm/common/backtrace.o
 .comment       0x00000000       0x31 build/libcpu/arm/common/backtrace.o
 .ARM.attributes
                0x00000000       0x33 build/libcpu/arm/common/backtrace.o
 .debug_frame   0x00000000       0x30 build/libcpu/arm/common/backtrace.o
 .text          0x00000000        0x0 build/libcpu/arm/common/div0.o
 .data          0x00000000        0x0 build/libcpu/arm/common/div0.o
 .bss           0x00000000        0x0 build/libcpu/arm/common/div0.o
 .text.__div0   0x00000000        0x8 build/libcpu/arm/common/div0.o
 .debug_info    0x00000000       0x3b build/libcpu/arm/common/div0.o
 .debug_abbrev  0x00000000       0x29 build/libcpu/arm/common/div0.o
 .debug_loc     0x00000000       0x2c build/libcpu/arm/common/div0.o
 .debug_aranges
                0x00000000       0x20 build/libcpu/arm/common/div0.o
 .debug_ranges  0x00000000       0x10 build/libcpu/arm/common/div0.o
 .debug_line    0x00000000       0x6d build/libcpu/arm/common/div0.o
 .debug_str     0x00000000       0x4e build/libcpu/arm/common/div0.o
 .comment       0x00000000       0x31 build/libcpu/arm/common/div0.o
 .ARM.attributes
                0x00000000       0x33 build/libcpu/arm/common/div0.o
 .debug_frame   0x00000000       0x28 build/libcpu/arm/common/div0.o
 .text          0x00000000        0x0 build/libcpu/arm/common/showmem.o
 .data          0x00000000        0x0 build/libcpu/arm/common/showmem.o
 .bss           0x00000000        0x0 build/libcpu/arm/common/showmem.o
 .rodata        0x00000000       0x44 build/libcpu/arm/common/showmem.o
 .text.rt_hw_show_memory
                0x00000000       0xc8 build/libcpu/arm/common/showmem.o
 .rodata.__FUNCTION__.4613
                0x00000000       0x14 build/libcpu/arm/common/showmem.o
 .debug_info    0x00000000      0x104 build/libcpu/arm/common/showmem.o
 .debug_abbrev  0x00000000       0xb3 build/libcpu/arm/common/showmem.o
 .debug_loc     0x00000000       0x38 build/libcpu/arm/common/showmem.o
 .debug_aranges
                0x00000000       0x20 build/libcpu/arm/common/showmem.o
 .debug_ranges  0x00000000       0x10 build/libcpu/arm/common/showmem.o
 .debug_line    0x00000000       0xdc build/libcpu/arm/common/showmem.o
 .debug_str     0x00000000      0x119 build/libcpu/arm/common/showmem.o
 .comment       0x00000000       0x31 build/libcpu/arm/common/showmem.o
 .ARM.attributes
                0x00000000       0x33 build/libcpu/arm/common/showmem.o
 .debug_frame   0x00000000       0x30 build/libcpu/arm/common/showmem.o
 .text          0x00000000        0x0 build/components/finsh/libfinsh.a(cmd.o)
 .data          0x00000000        0x0 build/components/finsh/libfinsh.a(cmd.o)
 .bss           0x00000000        0x0 build/components/finsh/libfinsh.a(cmd.o)
 .text          0x00000000        0x0 build/components/finsh/libfinsh.a(finsh_var.o)
 .data          0x00000000        0x0 build/components/finsh/libfinsh.a(finsh_var.o)
 .bss           0x00000000        0x0 build/components/finsh/libfinsh.a(finsh_var.o)
 .text.finsh_var_delete
                0x00000000       0x94 build/components/finsh/libfinsh.a(finsh_var.o)
 .text.finsh_sysvar_append
                0x00000000       0x80 build/components/finsh/libfinsh.a(finsh_var.o)
 .text          0x00000000        0x0 build/components/finsh/libfinsh.a(finsh_vm.o)
 .data          0x00000000        0x0 build/components/finsh/libfinsh.a(finsh_vm.o)
 .bss           0x00000000        0x0 build/components/finsh/libfinsh.a(finsh_vm.o)
 .text.finsh_syscall_append
                0x00000000       0x74 build/components/finsh/libfinsh.a(finsh_vm.o)
 .text          0x00000000        0x0 build/components/finsh/libfinsh.a(shell.o)
 .data          0x00000000        0x0 build/components/finsh/libfinsh.a(shell.o)
 .bss           0x00000000        0x0 build/components/finsh/libfinsh.a(shell.o)
 .text.finsh_get_device
                0x00000000       0x5c build/components/finsh/libfinsh.a(shell.o)
 .text.finsh_set_echo
                0x00000000       0x6c build/components/finsh/libfinsh.a(shell.o)
 .text.finsh_get_echo
                0x00000000       0x60 build/components/finsh/libfinsh.a(shell.o)
 .rodata.__FUNCTION__.4919
                0x00000000       0x10 build/components/finsh/libfinsh.a(shell.o)
 .rodata.__FUNCTION__.4912
                0x00000000       0x10 build/components/finsh/libfinsh.a(shell.o)
 .rodata.__FUNCTION__.4904
                0x00000000       0x14 build/components/finsh/libfinsh.a(shell.o)
 .text          0x00000000        0x0 build/components/finsh/libfinsh.a(symbol.o)
 .data          0x00000000        0x0 build/components/finsh/libfinsh.a(symbol.o)
 .bss           0x00000000        0x0 build/components/finsh/libfinsh.a(symbol.o)
 .text          0x00000000        0x0 build/components/finsh/libfinsh.a(finsh_compiler.o)
 .data          0x00000000        0x0 build/components/finsh/libfinsh.a(finsh_compiler.o)
 .bss           0x00000000        0x0 build/components/finsh/libfinsh.a(finsh_compiler.o)
 .text          0x00000000        0x0 build/components/finsh/libfinsh.a(finsh_error.o)
 .data          0x00000000        0x0 build/components/finsh/libfinsh.a(finsh_error.o)
 .bss           0x00000000        0x0 build/components/finsh/libfinsh.a(finsh_error.o)
 .text          0x00000000        0x0 build/components/finsh/libfinsh.a(finsh_init.o)
 .data          0x00000000        0x0 build/components/finsh/libfinsh.a(finsh_init.o)
 .bss           0x00000000        0x0 build/components/finsh/libfinsh.a(finsh_init.o)
 .text.finsh_reset
                0x00000000       0x28 build/components/finsh/libfinsh.a(finsh_init.o)
 .text          0x00000000        0x0 build/components/finsh/libfinsh.a(finsh_node.o)
 .data          0x00000000        0x0 build/components/finsh/libfinsh.a(finsh_node.o)
 .bss           0x00000000        0x0 build/components/finsh/libfinsh.a(finsh_node.o)
 .text          0x00000000        0x0 build/components/finsh/libfinsh.a(finsh_ops.o)
 .data          0x00000000        0x0 build/components/finsh/libfinsh.a(finsh_ops.o)
 .bss           0x00000000        0x0 build/components/finsh/libfinsh.a(finsh_ops.o)
 .text          0x00000000        0x0 build/components/finsh/libfinsh.a(finsh_parser.o)
 .data          0x00000000        0x0 build/components/finsh/libfinsh.a(finsh_parser.o)
 .bss           0x00000000        0x0 build/components/finsh/libfinsh.a(finsh_parser.o)
 .text          0x00000000        0x0 build/components/finsh/libfinsh.a(finsh_token.o)
 .data          0x00000000        0x0 build/components/finsh/libfinsh.a(finsh_token.o)
 .bss           0x00000000        0x0 build/components/finsh/libfinsh.a(finsh_token.o)
 .text.finsh_token_get_token
                0x00000000       0x24 build/components/finsh/libfinsh.a(finsh_token.o)
 .text          0x00000000        0x0 build/components/finsh/libfinsh.a(finsh_heap.o)
 .data          0x00000000        0x0 build/components/finsh/libfinsh.a(finsh_heap.o)
 .bss           0x00000000        0x0 build/components/finsh/libfinsh.a(finsh_heap.o)
 .text          0x00000000        0x0 build/components/libc/minilibc/ctype.o
 .data          0x00000000        0x0 build/components/libc/minilibc/ctype.o
 .bss           0x00000000        0x0 build/components/libc/minilibc/ctype.o
 .text.isprint  0x00000000       0x34 build/components/libc/minilibc/ctype.o
 .text.isdigit  0x00000000       0x24 build/components/libc/minilibc/ctype.o
 .text          0x00000000        0x0 build/components/libc/minilibc/math.o
 .data          0x00000000        0x0 build/components/libc/minilibc/math.o
 .bss           0x00000000        0x0 build/components/libc/minilibc/math.o
 .data.cos_off_tbl
                0x00000000       0x20 build/components/libc/minilibc/math.o
 .data.cos_sign_tbl
                0x00000000       0x20 build/components/libc/minilibc/math.o
 .data.sin_off_tbl
                0x00000000       0x20 build/components/libc/minilibc/math.o
 .data.sin_sign_tbl
                0x00000000       0x20 build/components/libc/minilibc/math.o
 .text.sin      0x00000000      0x2d0 build/components/libc/minilibc/math.o
 .text.cos      0x00000000      0x2c8 build/components/libc/minilibc/math.o
 .debug_info    0x00000000      0x135 build/components/libc/minilibc/math.o
 .debug_abbrev  0x00000000       0x82 build/components/libc/minilibc/math.o
 .debug_loc     0x00000000       0x70 build/components/libc/minilibc/math.o
 .debug_aranges
                0x00000000       0x28 build/components/libc/minilibc/math.o
 .debug_ranges  0x00000000       0x18 build/components/libc/minilibc/math.o
 .debug_line    0x00000000       0xc3 build/components/libc/minilibc/math.o
 .debug_str     0x00000000       0xa4 build/components/libc/minilibc/math.o
 .comment       0x00000000       0x31 build/components/libc/minilibc/math.o
 .ARM.attributes
                0x00000000       0x33 build/components/libc/minilibc/math.o
 .debug_frame   0x00000000       0x50 build/components/libc/minilibc/math.o
 .text          0x00000000        0x0 build/components/libc/minilibc/qsort.o
 .data          0x00000000        0x0 build/components/libc/minilibc/qsort.o
 .bss           0x00000000        0x0 build/components/libc/minilibc/qsort.o
 .text.exch     0x00000000       0x68 build/components/libc/minilibc/qsort.o
 .text.quicksort
                0x00000000      0x1ac build/components/libc/minilibc/qsort.o
 .text.qsort    0x00000000       0x54 build/components/libc/minilibc/qsort.o
 .debug_info    0x00000000      0x22b build/components/libc/minilibc/qsort.o
 .debug_abbrev  0x00000000       0xc0 build/components/libc/minilibc/qsort.o
 .debug_loc     0x00000000       0xa8 build/components/libc/minilibc/qsort.o
 .debug_aranges
                0x00000000       0x30 build/components/libc/minilibc/qsort.o
 .debug_ranges  0x00000000       0x20 build/components/libc/minilibc/qsort.o
 .debug_line    0x00000000      0x17d build/components/libc/minilibc/qsort.o
 .debug_str     0x00000000      0x133 build/components/libc/minilibc/qsort.o
 .comment       0x00000000       0x31 build/components/libc/minilibc/qsort.o
 .ARM.attributes
                0x00000000       0x33 build/components/libc/minilibc/qsort.o
 .debug_frame   0x00000000       0x6c build/components/libc/minilibc/qsort.o
 .text          0x00000000        0x0 build/components/libc/minilibc/rand.o
 .data          0x00000000        0x0 build/components/libc/minilibc/rand.o
 .bss           0x00000000        0x0 build/components/libc/minilibc/rand.o
 .data.seed     0x00000000        0x4 build/components/libc/minilibc/rand.o
 .text.rand_r   0x00000000       0x88 build/components/libc/minilibc/rand.o
 .text.rand     0x00000000       0x18 build/components/libc/minilibc/rand.o
 .text.srand    0x00000000       0x20 build/components/libc/minilibc/rand.o
 .debug_info    0x00000000      0x11b build/components/libc/minilibc/rand.o
 .debug_abbrev  0x00000000       0xc5 build/components/libc/minilibc/rand.o
 .debug_loc     0x00000000       0x9c build/components/libc/minilibc/rand.o
 .debug_aranges
                0x00000000       0x30 build/components/libc/minilibc/rand.o
 .debug_ranges  0x00000000       0x20 build/components/libc/minilibc/rand.o
 .debug_line    0x00000000       0xdd build/components/libc/minilibc/rand.o
 .debug_str     0x00000000      0x131 build/components/libc/minilibc/rand.o
 .comment       0x00000000       0x31 build/components/libc/minilibc/rand.o
 .ARM.attributes
                0x00000000       0x33 build/components/libc/minilibc/rand.o
 .debug_frame   0x00000000       0x64 build/components/libc/minilibc/rand.o
 .text          0x00000000        0x0 build/components/libc/minilibc/stdlib.o
 .data          0x00000000        0x0 build/components/libc/minilibc/stdlib.o
 .bss           0x00000000        0x0 build/components/libc/minilibc/stdlib.o
 .text.malloc   0x00000000       0x1c build/components/libc/minilibc/stdlib.o
 .text.free     0x00000000       0x18 build/components/libc/minilibc/stdlib.o
 .text.realloc  0x00000000       0x20 build/components/libc/minilibc/stdlib.o
 .text.calloc   0x00000000       0x20 build/components/libc/minilibc/stdlib.o
 .text          0x00000000        0x0 build/components/libc/minilibc/string.o
 .data          0x00000000        0x0 build/components/libc/minilibc/string.o
 .bss           0x00000000        0x0 build/components/libc/minilibc/string.o
 .text.strcpy   0x00000000       0x2c build/components/libc/minilibc/string.o
 .text.strlcpy  0x00000000       0x84 build/components/libc/minilibc/string.o
 .text.strcat   0x00000000       0x5c build/components/libc/minilibc/string.o
 .text.strncat  0x00000000       0x7c build/components/libc/minilibc/string.o
 .text.strrchr  0x00000000       0x3c build/components/libc/minilibc/string.o
 .text.strncasecmp
                0x00000000       0x74 build/components/libc/minilibc/string.o
 .text.skip_atoi
                0x00000000       0x4c build/components/libc/minilibc/string.o
 .data._ctype   0x00000000      0x100 build/components/libc/minilibc/string.o
 .text.__tolower
                0x00000000       0x38 build/components/libc/minilibc/string.o
 .text.__toupper
                0x00000000       0x34 build/components/libc/minilibc/string.o
 .text.tolower  0x00000000       0x20 build/components/libc/minilibc/string.o
 .text.toupper  0x00000000       0x20 build/components/libc/minilibc/string.o
 .text.simple_strtoul
                0x00000000      0x118 build/components/libc/minilibc/string.o
 .text.simple_strtol
                0x00000000       0x44 build/components/libc/minilibc/string.o
 .text.simple_strtoull
                0x00000000      0x154 build/components/libc/minilibc/string.o
 .text.simple_strtoll
                0x00000000       0x4c build/components/libc/minilibc/string.o
 .text.vsscanf  0x00000000      0x6d8 build/components/libc/minilibc/string.o
 .text.sscanf   0x00000000       0x30 build/components/libc/minilibc/string.o
 .text.strspn   0x00000000       0x8c build/components/libc/minilibc/string.o
 .text.strcspn  0x00000000       0x88 build/components/libc/minilibc/string.o
 .text.strtok_r
                0x00000000       0x74 build/components/libc/minilibc/string.o
 .text.strtok   0x00000000       0x28 build/components/libc/minilibc/string.o
 .text.strchr   0x00000000       0x4c build/components/libc/minilibc/string.o
 .bss.strtok_pos.4941
                0x00000000        0x4 build/components/libc/minilibc/string.o
 .text          0x00000000        0x0 build/components/libc/minilibc/time.o
 .data          0x00000000        0x0 build/components/libc/minilibc/time.o
 .bss           0x00000000        0x0 build/components/libc/minilibc/time.o
 .text          0x00000000        0x0 build/bsp/Libraries/CMSIS/CM3/CoreSupport/core_cm3.o
 .data          0x00000000        0x0 build/bsp/Libraries/CMSIS/CM3/CoreSupport/core_cm3.o
 .bss           0x00000000        0x0 build/bsp/Libraries/CMSIS/CM3/CoreSupport/core_cm3.o
 .text.__get_PSP
                0x00000000       0x10 build/bsp/Libraries/CMSIS/CM3/CoreSupport/core_cm3.o
 .text.__set_PSP
                0x00000000        0x8 build/bsp/Libraries/CMSIS/CM3/CoreSupport/core_cm3.o
 .text.__get_MSP
                0x00000000       0x10 build/bsp/Libraries/CMSIS/CM3/CoreSupport/core_cm3.o
 .text.__set_MSP
                0x00000000        0x8 build/bsp/Libraries/CMSIS/CM3/CoreSupport/core_cm3.o
 .text.__get_BASEPRI
                0x00000000       0x20 build/bsp/Libraries/CMSIS/CM3/CoreSupport/core_cm3.o
 .text.__set_BASEPRI
                0x00000000       0x18 build/bsp/Libraries/CMSIS/CM3/CoreSupport/core_cm3.o
 .text.__get_PRIMASK
                0x00000000       0x20 build/bsp/Libraries/CMSIS/CM3/CoreSupport/core_cm3.o
 .text.__set_PRIMASK
                0x00000000       0x18 build/bsp/Libraries/CMSIS/CM3/CoreSupport/core_cm3.o
 .text.__get_FAULTMASK
                0x00000000       0x20 build/bsp/Libraries/CMSIS/CM3/CoreSupport/core_cm3.o
 .text.__set_FAULTMASK
                0x00000000       0x18 build/bsp/Libraries/CMSIS/CM3/CoreSupport/core_cm3.o
 .text.__get_CONTROL
                0x00000000       0x20 build/bsp/Libraries/CMSIS/CM3/CoreSupport/core_cm3.o
 .text.__set_CONTROL
                0x00000000       0x18 build/bsp/Libraries/CMSIS/CM3/CoreSupport/core_cm3.o
 .text.__REV    0x00000000       0x24 build/bsp/Libraries/CMSIS/CM3/CoreSupport/core_cm3.o
 .text.__REV16  0x00000000       0x24 build/bsp/Libraries/CMSIS/CM3/CoreSupport/core_cm3.o
 .text.__REVSH  0x00000000       0x24 build/bsp/Libraries/CMSIS/CM3/CoreSupport/core_cm3.o
 .text.__RBIT   0x00000000       0x24 build/bsp/Libraries/CMSIS/CM3/CoreSupport/core_cm3.o
 .text.__LDREXB
                0x00000000       0x24 build/bsp/Libraries/CMSIS/CM3/CoreSupport/core_cm3.o
 .text.__LDREXH
                0x00000000       0x24 build/bsp/Libraries/CMSIS/CM3/CoreSupport/core_cm3.o
 .text.__LDREXW
                0x00000000       0x24 build/bsp/Libraries/CMSIS/CM3/CoreSupport/core_cm3.o
 .text.__STREXB
                0x00000000       0x2c build/bsp/Libraries/CMSIS/CM3/CoreSupport/core_cm3.o
 .text.__STREXH
                0x00000000       0x2c build/bsp/Libraries/CMSIS/CM3/CoreSupport/core_cm3.o
 .text.__STREXW
                0x00000000       0x28 build/bsp/Libraries/CMSIS/CM3/CoreSupport/core_cm3.o
 .debug_info    0x00000000      0x58a build/bsp/Libraries/CMSIS/CM3/CoreSupport/core_cm3.o
 .debug_abbrev  0x00000000       0xd7 build/bsp/Libraries/CMSIS/CM3/CoreSupport/core_cm3.o
 .debug_loc     0x00000000      0x3f0 build/bsp/Libraries/CMSIS/CM3/CoreSupport/core_cm3.o
 .debug_aranges
                0x00000000       0xc8 build/bsp/Libraries/CMSIS/CM3/CoreSupport/core_cm3.o
 .debug_ranges  0x00000000       0xb8 build/bsp/Libraries/CMSIS/CM3/CoreSupport/core_cm3.o
 .debug_line    0x00000000      0x277 build/bsp/Libraries/CMSIS/CM3/CoreSupport/core_cm3.o
 .debug_str     0x00000000      0x28c build/bsp/Libraries/CMSIS/CM3/CoreSupport/core_cm3.o
 .comment       0x00000000       0x31 build/bsp/Libraries/CMSIS/CM3/CoreSupport/core_cm3.o
 .ARM.attributes
                0x00000000       0x33 build/bsp/Libraries/CMSIS/CM3/CoreSupport/core_cm3.o
 .debug_frame   0x00000000      0x280 build/bsp/Libraries/CMSIS/CM3/CoreSupport/core_cm3.o
 .text          0x00000000        0x0 build/bsp/Libraries/CMSIS/CM3/DeviceSupport/ST/STM32F10x/system_stm32f10x.o
 .data          0x00000000        0x0 build/bsp/Libraries/CMSIS/CM3/DeviceSupport/ST/STM32F10x/system_stm32f10x.o
 .bss           0x00000000        0x0 build/bsp/Libraries/CMSIS/CM3/DeviceSupport/ST/STM32F10x/system_stm32f10x.o
 .data.AHBPrescTable
                0x00000000       0x10 build/bsp/Libraries/CMSIS/CM3/DeviceSupport/ST/STM32F10x/system_stm32f10x.o
 .text.SystemCoreClockUpdate
                0x00000000      0x148 build/bsp/Libraries/CMSIS/CM3/DeviceSupport/ST/STM32F10x/system_stm32f10x.o
 .text          0x00000000        0x0 build/bsp/Libraries/STM32F10x_StdPeriph_Driver/src/stm32f10x_crc.o
 .data          0x00000000        0x0 build/bsp/Libraries/STM32F10x_StdPeriph_Driver/src/stm32f10x_crc.o
 .bss           0x00000000        0x0 build/bsp/Libraries/STM32F10x_StdPeriph_Driver/src/stm32f10x_crc.o
 .text.CRC_ResetDR
                0x00000000       0x18 build/bsp/Libraries/STM32F10x_StdPeriph_Driver/src/stm32f10x_crc.o
 .text.CRC_CalcCRC
                0x00000000       0x2c build/bsp/Libraries/STM32F10x_StdPeriph_Driver/src/stm32f10x_crc.o
 .text.CRC_CalcBlockCRC
                0x00000000       0x54 build/bsp/Libraries/STM32F10x_StdPeriph_Driver/src/stm32f10x_crc.o
 .text.CRC_GetCRC
                0x00000000       0x18 build/bsp/Libraries/STM32F10x_StdPeriph_Driver/src/stm32f10x_crc.o
 .text.CRC_SetIDRegister
                0x00000000       0x20 build/bsp/Libraries/STM32F10x_StdPeriph_Driver/src/stm32f10x_crc.o
 .text.CRC_GetIDRegister
                0x00000000       0x18 build/bsp/Libraries/STM32F10x_StdPeriph_Driver/src/stm32f10x_crc.o
 .debug_info    0x00000000      0x21e build/bsp/Libraries/STM32F10x_StdPeriph_Driver/src/stm32f10x_crc.o
 .debug_abbrev  0x00000000      0x10c build/bsp/Libraries/STM32F10x_StdPeriph_Driver/src/stm32f10x_crc.o
 .debug_loc     0x00000000      0x12c build/bsp/Libraries/STM32F10x_StdPeriph_Driver/src/stm32f10x_crc.o
 .debug_aranges
                0x00000000       0x48 build/bsp/Libraries/STM32F10x_StdPeriph_Driver/src/stm32f10x_crc.o
 .debug_ranges  0x00000000       0x38 build/bsp/Libraries/STM32F10x_StdPeriph_Driver/src/stm32f10x_crc.o
 .debug_line    0x00000000      0x1c1 build/bsp/Libraries/STM32F10x_StdPeriph_Driver/src/stm32f10x_crc.o
 .debug_str     0x00000000      0x1e8 build/bsp/Libraries/STM32F10x_StdPeriph_Driver/src/stm32f10x_crc.o
 .comment       0x00000000       0x31 build/bsp/Libraries/STM32F10x_StdPeriph_Driver/src/stm32f10x_crc.o
 .ARM.attributes
                0x00000000       0x33 build/bsp/Libraries/STM32F10x_StdPeriph_Driver/src/stm32f10x_crc.o
 .debug_frame   0x00000000       0xac build/bsp/Libraries/STM32F10x_StdPeriph_Driver/src/stm32f10x_crc.o
 .text          0x00000000        0x0 build/bsp/Libraries/STM32F10x_StdPeriph_Driver/src/stm32f10x_rcc.o
 .data          0x00000000        0x0 build/bsp/Libraries/STM32F10x_StdPeriph_Driver/src/stm32f10x_rcc.o
 .bss           0x00000000        0x0 build/bsp/Libraries/STM32F10x_StdPeriph_Driver/src/stm32f10x_rcc.o
 .text.RCC_DeInit
                0x00000000       0x9c build/bsp/Libraries/STM32F10x_StdPeriph_Driver/src/stm32f10x_rcc.o
 .text.RCC_HSEConfig
                0x00000000       0xac build/bsp/Libraries/STM32F10x_StdPeriph_Driver/src/stm32f10x_rcc.o
 .text.RCC_WaitForHSEStartUp
                0x00000000       0x64 build/bsp/Libraries/STM32F10x_StdPeriph_Driver/src/stm32f10x_rcc.o
 .text.RCC_AdjustHSICalibrationValue
                0x00000000       0x5c build/bsp/Libraries/STM32F10x_StdPeriph_Driver/src/stm32f10x_rcc.o
 .text.RCC_HSICmd
                0x00000000       0x3c build/bsp/Libraries/STM32F10x_StdPeriph_Driver/src/stm32f10x_rcc.o
 .text.RCC_PLLConfig
                0x00000000       0xf0 build/bsp/Libraries/STM32F10x_StdPeriph_Driver/src/stm32f10x_rcc.o
 .text.RCC_PLLCmd
                0x00000000       0x3c build/bsp/Libraries/STM32F10x_StdPeriph_Driver/src/stm32f10x_rcc.o
 .text.RCC_SYSCLKConfig
                0x00000000       0x60 build/bsp/Libraries/STM32F10x_StdPeriph_Driver/src/stm32f10x_rcc.o
 .text.RCC_GetSYSCLKSource
                0x00000000       0x20 build/bsp/Libraries/STM32F10x_StdPeriph_Driver/src/stm32f10x_rcc.o
 .text.RCC_HCLKConfig
                0x00000000       0x84 build/bsp/Libraries/STM32F10x_StdPeriph_Driver/src/stm32f10x_rcc.o
 .text.RCC_PCLK1Config
                0x00000000       0x74 build/bsp/Libraries/STM32F10x_StdPeriph_Driver/src/stm32f10x_rcc.o
 .text.RCC_PCLK2Config
                0x00000000       0x78 build/bsp/Libraries/STM32F10x_StdPeriph_Driver/src/stm32f10x_rcc.o
 .text.RCC_ITConfig
                0x00000000       0x98 build/bsp/Libraries/STM32F10x_StdPeriph_Driver/src/stm32f10x_rcc.o
 .text.RCC_USBCLKConfig
                0x00000000       0x38 build/bsp/Libraries/STM32F10x_StdPeriph_Driver/src/stm32f10x_rcc.o
 .text.RCC_ADCCLKConfig
                0x00000000       0x6c build/bsp/Libraries/STM32F10x_StdPeriph_Driver/src/stm32f10x_rcc.o
 .text.RCC_LSICmd
                0x00000000       0x3c build/bsp/Libraries/STM32F10x_StdPeriph_Driver/src/stm32f10x_rcc.o
 .text.RCC_AHBPeriphClockCmd
                0x00000000       0x90 build/bsp/Libraries/STM32F10x_StdPeriph_Driver/src/stm32f10x_rcc.o
 .text.RCC_APB2PeriphResetCmd
                0x00000000       0x94 build/bsp/Libraries/STM32F10x_StdPeriph_Driver/src/stm32f10x_rcc.o
 .text.RCC_APB1PeriphResetCmd
                0x00000000       0x94 build/bsp/Libraries/STM32F10x_StdPeriph_Driver/src/stm32f10x_rcc.o
 .text.RCC_ClockSecuritySystemCmd
                0x00000000       0x3c build/bsp/Libraries/STM32F10x_StdPeriph_Driver/src/stm32f10x_rcc.o
 .text.RCC_MCOConfig
                0x00000000       0x4c build/bsp/Libraries/STM32F10x_StdPeriph_Driver/src/stm32f10x_rcc.o
 .text.RCC_ClearFlag
                0x00000000       0x24 build/bsp/Libraries/STM32F10x_StdPeriph_Driver/src/stm32f10x_rcc.o
 .text.RCC_GetITStatus
                0x00000000       0x70 build/bsp/Libraries/STM32F10x_StdPeriph_Driver/src/stm32f10x_rcc.o
 .text.RCC_ClearITPendingBit
                0x00000000       0x40 build/bsp/Libraries/STM32F10x_StdPeriph_Driver/src/stm32f10x_rcc.o
 .text          0x00000000        0x0 build/bsp/Libraries/STM32F10x_StdPeriph_Driver/src/stm32f10x_wwdg.o
 .data          0x00000000        0x0 build/bsp/Libraries/STM32F10x_StdPeriph_Driver/src/stm32f10x_wwdg.o
 .bss           0x00000000        0x0 build/bsp/Libraries/STM32F10x_StdPeriph_Driver/src/stm32f10x_wwdg.o
 .text.WWDG_DeInit
                0x00000000       0x20 build/bsp/Libraries/STM32F10x_StdPeriph_Driver/src/stm32f10x_wwdg.o
 .rodata        0x00000000       0x3c build/bsp/Libraries/STM32F10x_StdPeriph_Driver/src/stm32f10x_wwdg.o
 .text.WWDG_SetPrescaler
                0x00000000       0x68 build/bsp/Libraries/STM32F10x_StdPeriph_Driver/src/stm32f10x_wwdg.o
 .text.WWDG_SetWindowValue
                0x00000000       0x58 build/bsp/Libraries/STM32F10x_StdPeriph_Driver/src/stm32f10x_wwdg.o
 .text.WWDG_EnableIT
                0x00000000       0x18 build/bsp/Libraries/STM32F10x_StdPeriph_Driver/src/stm32f10x_wwdg.o
 .text.WWDG_SetCounter
                0x00000000       0x40 build/bsp/Libraries/STM32F10x_StdPeriph_Driver/src/stm32f10x_wwdg.o
 .text.WWDG_Enable
                0x00000000       0x44 build/bsp/Libraries/STM32F10x_StdPeriph_Driver/src/stm32f10x_wwdg.o
 .text.WWDG_GetFlagStatus
                0x00000000       0x18 build/bsp/Libraries/STM32F10x_StdPeriph_Driver/src/stm32f10x_wwdg.o
 .text.WWDG_ClearFlag
                0x00000000       0x18 build/bsp/Libraries/STM32F10x_StdPeriph_Driver/src/stm32f10x_wwdg.o
 .debug_info    0x00000000      0x248 build/bsp/Libraries/STM32F10x_StdPeriph_Driver/src/stm32f10x_wwdg.o
 .debug_abbrev  0x00000000       0xfa build/bsp/Libraries/STM32F10x_StdPeriph_Driver/src/stm32f10x_wwdg.o
 .debug_loc     0x00000000      0x190 build/bsp/Libraries/STM32F10x_StdPeriph_Driver/src/stm32f10x_wwdg.o
 .debug_aranges
                0x00000000       0x58 build/bsp/Libraries/STM32F10x_StdPeriph_Driver/src/stm32f10x_wwdg.o
 .debug_ranges  0x00000000       0x48 build/bsp/Libraries/STM32F10x_StdPeriph_Driver/src/stm32f10x_wwdg.o
 .debug_line    0x00000000      0x212 build/bsp/Libraries/STM32F10x_StdPeriph_Driver/src/stm32f10x_wwdg.o
 .debug_str     0x00000000      0x209 build/bsp/Libraries/STM32F10x_StdPeriph_Driver/src/stm32f10x_wwdg.o
 .comment       0x00000000       0x31 build/bsp/Libraries/STM32F10x_StdPeriph_Driver/src/stm32f10x_wwdg.o
 .ARM.attributes
                0x00000000       0x33 build/bsp/Libraries/STM32F10x_StdPeriph_Driver/src/stm32f10x_wwdg.o
 .debug_frame   0x00000000       0xf4 build/bsp/Libraries/STM32F10x_StdPeriph_Driver/src/stm32f10x_wwdg.o
 .text          0x00000000        0x0 build/bsp/Libraries/STM32F10x_StdPeriph_Driver/src/stm32f10x_pwr.o
 .data          0x00000000        0x0 build/bsp/Libraries/STM32F10x_StdPeriph_Driver/src/stm32f10x_pwr.o
 .bss           0x00000000        0x0 build/bsp/Libraries/STM32F10x_StdPeriph_Driver/src/stm32f10x_pwr.o
 .text.__WFI    0x00000000        0xc build/bsp/Libraries/STM32F10x_StdPeriph_Driver/src/stm32f10x_pwr.o
 .text.__WFE    0x00000000        0xc build/bsp/Libraries/STM32F10x_StdPeriph_Driver/src/stm32f10x_pwr.o
 .text.PWR_DeInit
                0x00000000       0x20 build/bsp/Libraries/STM32F10x_StdPeriph_Driver/src/stm32f10x_pwr.o
 .text.PWR_PVDCmd
                0x00000000       0x3c build/bsp/Libraries/STM32F10x_StdPeriph_Driver/src/stm32f10x_pwr.o
 .text.PWR_PVDLevelConfig
                0x00000000       0x80 build/bsp/Libraries/STM32F10x_StdPeriph_Driver/src/stm32f10x_pwr.o
 .text.PWR_WakeUpPinCmd
                0x00000000       0x3c build/bsp/Libraries/STM32F10x_StdPeriph_Driver/src/stm32f10x_pwr.o
 .text.PWR_EnterSTOPMode
                0x00000000       0xbc build/bsp/Libraries/STM32F10x_StdPeriph_Driver/src/stm32f10x_pwr.o
 .text.PWR_EnterSTANDBYMode
                0x00000000       0x54 build/bsp/Libraries/STM32F10x_StdPeriph_Driver/src/stm32f10x_pwr.o
 .text.PWR_GetFlagStatus
                0x00000000       0x5c build/bsp/Libraries/STM32F10x_StdPeriph_Driver/src/stm32f10x_pwr.o
 .text.PWR_ClearFlag
                0x00000000       0x48 build/bsp/Libraries/STM32F10x_StdPeriph_Driver/src/stm32f10x_pwr.o
 .text          0x00000000        0x0 build/bsp/Libraries/STM32F10x_StdPeriph_Driver/src/stm32f10x_exti.o
 .data          0x00000000        0x0 build/bsp/Libraries/STM32F10x_StdPeriph_Driver/src/stm32f10x_exti.o
 .bss           0x00000000        0x0 build/bsp/Libraries/STM32F10x_StdPeriph_Driver/src/stm32f10x_exti.o
 .text.EXTI_DeInit
                0x00000000       0x54 build/bsp/Libraries/STM32F10x_StdPeriph_Driver/src/stm32f10x_exti.o
 .rodata        0x00000000       0x3c build/bsp/Libraries/STM32F10x_StdPeriph_Driver/src/stm32f10x_exti.o
 .text.EXTI_Init
                0x00000000      0x1c8 build/bsp/Libraries/STM32F10x_StdPeriph_Driver/src/stm32f10x_exti.o
 .text.EXTI_StructInit
                0x00000000       0x34 build/bsp/Libraries/STM32F10x_StdPeriph_Driver/src/stm32f10x_exti.o
 .text.EXTI_GenerateSWInterrupt
                0x00000000       0x4c build/bsp/Libraries/STM32F10x_StdPeriph_Driver/src/stm32f10x_exti.o
 .text.EXTI_GetFlagStatus
                0x00000000       0xdc build/bsp/Libraries/STM32F10x_StdPeriph_Driver/src/stm32f10x_exti.o
 .text.EXTI_ClearFlag
                0x00000000       0x40 build/bsp/Libraries/STM32F10x_StdPeriph_Driver/src/stm32f10x_exti.o
 .text.EXTI_GetITStatus
                0x00000000       0xf8 build/bsp/Libraries/STM32F10x_StdPeriph_Driver/src/stm32f10x_exti.o
 .text.EXTI_ClearITPendingBit
                0x00000000       0x40 build/bsp/Libraries/STM32F10x_StdPeriph_Driver/src/stm32f10x_exti.o
 .debug_info    0x00000000      0x395 build/bsp/Libraries/STM32F10x_StdPeriph_Driver/src/stm32f10x_exti.o
 .debug_abbrev  0x00000000      0x14c build/bsp/Libraries/STM32F10x_StdPeriph_Driver/src/stm32f10x_exti.o
 .debug_loc     0x00000000      0x1b4 build/bsp/Libraries/STM32F10x_StdPeriph_Driver/src/stm32f10x_exti.o
 .debug_aranges
                0x00000000       0x58 build/bsp/Libraries/STM32F10x_StdPeriph_Driver/src/stm32f10x_exti.o
 .debug_ranges  0x00000000       0x48 build/bsp/Libraries/STM32F10x_StdPeriph_Driver/src/stm32f10x_exti.o
 .debug_line    0x00000000      0x365 build/bsp/Libraries/STM32F10x_StdPeriph_Driver/src/stm32f10x_exti.o
 .debug_str     0x00000000      0x31c build/bsp/Libraries/STM32F10x_StdPeriph_Driver/src/stm32f10x_exti.o
 .comment       0x00000000       0x31 build/bsp/Libraries/STM32F10x_StdPeriph_Driver/src/stm32f10x_exti.o
 .ARM.attributes
                0x00000000       0x33 build/bsp/Libraries/STM32F10x_StdPeriph_Driver/src/stm32f10x_exti.o
 .debug_frame   0x00000000      0x104 build/bsp/Libraries/STM32F10x_StdPeriph_Driver/src/stm32f10x_exti.o
 .text          0x00000000        0x0 build/bsp/Libraries/STM32F10x_StdPeriph_Driver/src/stm32f10x_bkp.o
 .data          0x00000000        0x0 build/bsp/Libraries/STM32F10x_StdPeriph_Driver/src/stm32f10x_bkp.o
 .bss           0x00000000        0x0 build/bsp/Libraries/STM32F10x_StdPeriph_Driver/src/stm32f10x_bkp.o
 .text.BKP_TamperPinLevelConfig
                0x00000000       0x3c build/bsp/Libraries/STM32F10x_StdPeriph_Driver/src/stm32f10x_bkp.o
 .text.BKP_TamperPinCmd
                0x00000000       0x3c build/bsp/Libraries/STM32F10x_StdPeriph_Driver/src/stm32f10x_bkp.o
 .text.BKP_ITConfig
                0x00000000       0x3c build/bsp/Libraries/STM32F10x_StdPeriph_Driver/src/stm32f10x_bkp.o
 .text.BKP_RTCOutputConfig
                0x00000000       0x6c build/bsp/Libraries/STM32F10x_StdPeriph_Driver/src/stm32f10x_bkp.o
 .text.BKP_SetRTCCalibrationValue
                0x00000000       0x5c build/bsp/Libraries/STM32F10x_StdPeriph_Driver/src/stm32f10x_bkp.o
 .text.BKP_GetFlagStatus
                0x00000000       0x18 build/bsp/Libraries/STM32F10x_StdPeriph_Driver/src/stm32f10x_bkp.o
 .text.BKP_ClearFlag
                0x00000000       0x28 build/bsp/Libraries/STM32F10x_StdPeriph_Driver/src/stm32f10x_bkp.o
 .text.BKP_GetITStatus
                0x00000000       0x18 build/bsp/Libraries/STM32F10x_StdPeriph_Driver/src/stm32f10x_bkp.o
 .text.BKP_ClearITPendingBit
                0x00000000       0x28 build/bsp/Libraries/STM32F10x_StdPeriph_Driver/src/stm32f10x_bkp.o
 .text          0x00000000        0x0 build/bsp/Libraries/STM32F10x_StdPeriph_Driver/src/stm32f10x_i2c.o
 .data          0x00000000        0x0 build/bsp/Libraries/STM32F10x_StdPeriph_Driver/src/stm32f10x_i2c.o
 .bss           0x00000000        0x0 build/bsp/Libraries/STM32F10x_StdPeriph_Driver/src/stm32f10x_i2c.o
 .rodata        0x00000000       0x3c build/bsp/Libraries/STM32F10x_StdPeriph_Driver/src/stm32f10x_i2c.o
 .text.I2C_DeInit
                0x00000000       0x7c build/bsp/Libraries/STM32F10x_StdPeriph_Driver/src/stm32f10x_i2c.o
 .text.I2C_Init
                0x00000000      0x2b0 build/bsp/Libraries/STM32F10x_StdPeriph_Driver/src/stm32f10x_i2c.o
 .text.I2C_StructInit
                0x00000000       0x44 build/bsp/Libraries/STM32F10x_StdPeriph_Driver/src/stm32f10x_i2c.o
 .text.I2C_Cmd  0x00000000       0x84 build/bsp/Libraries/STM32F10x_StdPeriph_Driver/src/stm32f10x_i2c.o
 .text.I2C_DMACmd
                0x00000000       0x84 build/bsp/Libraries/STM32F10x_StdPeriph_Driver/src/stm32f10x_i2c.o
 .text.I2C_DMALastTransferCmd
                0x00000000       0x84 build/bsp/Libraries/STM32F10x_StdPeriph_Driver/src/stm32f10x_i2c.o
 .text.I2C_GenerateSTART
                0x00000000       0x84 build/bsp/Libraries/STM32F10x_StdPeriph_Driver/src/stm32f10x_i2c.o
 .text.I2C_GenerateSTOP
                0x00000000       0x84 build/bsp/Libraries/STM32F10x_StdPeriph_Driver/src/stm32f10x_i2c.o
 .text.I2C_AcknowledgeConfig
                0x00000000       0x84 build/bsp/Libraries/STM32F10x_StdPeriph_Driver/src/stm32f10x_i2c.o
 .text.I2C_OwnAddress2Config
                0x00000000       0x6c build/bsp/Libraries/STM32F10x_StdPeriph_Driver/src/stm32f10x_i2c.o
 .text.I2C_DualAddressCmd
                0x00000000       0x84 build/bsp/Libraries/STM32F10x_StdPeriph_Driver/src/stm32f10x_i2c.o
 .text.I2C_GeneralCallCmd
                0x00000000       0x84 build/bsp/Libraries/STM32F10x_StdPeriph_Driver/src/stm32f10x_i2c.o
 .text.I2C_ITConfig
                0x00000000       0xb0 build/bsp/Libraries/STM32F10x_StdPeriph_Driver/src/stm32f10x_i2c.o
 .text.I2C_SendData
                0x00000000       0x48 build/bsp/Libraries/STM32F10x_StdPeriph_Driver/src/stm32f10x_i2c.o
 .text.I2C_ReceiveData
                0x00000000       0x48 build/bsp/Libraries/STM32F10x_StdPeriph_Driver/src/stm32f10x_i2c.o
 .text.I2C_Send7bitAddress
                0x00000000       0x80 build/bsp/Libraries/STM32F10x_StdPeriph_Driver/src/stm32f10x_i2c.o
 .text.I2C_ReadRegister
                0x00000000       0xa0 build/bsp/Libraries/STM32F10x_StdPeriph_Driver/src/stm32f10x_i2c.o
 .text.I2C_SoftwareResetCmd
                0x00000000       0x8c build/bsp/Libraries/STM32F10x_StdPeriph_Driver/src/stm32f10x_i2c.o
 .text.I2C_NACKPositionConfig
                0x00000000       0x8c build/bsp/Libraries/STM32F10x_StdPeriph_Driver/src/stm32f10x_i2c.o
 .text.I2C_SMBusAlertConfig
                0x00000000       0x8c build/bsp/Libraries/STM32F10x_StdPeriph_Driver/src/stm32f10x_i2c.o
 .text.I2C_TransmitPEC
                0x00000000       0x84 build/bsp/Libraries/STM32F10x_StdPeriph_Driver/src/stm32f10x_i2c.o
 .text.I2C_PECPositionConfig
                0x00000000       0x8c build/bsp/Libraries/STM32F10x_StdPeriph_Driver/src/stm32f10x_i2c.o
 .text.I2C_CalculatePEC
                0x00000000       0x84 build/bsp/Libraries/STM32F10x_StdPeriph_Driver/src/stm32f10x_i2c.o
 .text.I2C_GetPEC
                0x00000000       0x4c build/bsp/Libraries/STM32F10x_StdPeriph_Driver/src/stm32f10x_i2c.o
 .text.I2C_ARPCmd
                0x00000000       0x84 build/bsp/Libraries/STM32F10x_StdPeriph_Driver/src/stm32f10x_i2c.o
 .text.I2C_StretchClockCmd
                0x00000000       0x84 build/bsp/Libraries/STM32F10x_StdPeriph_Driver/src/stm32f10x_i2c.o
 .text.I2C_FastModeDutyCycleConfig
                0x00000000       0x8c build/bsp/Libraries/STM32F10x_StdPeriph_Driver/src/stm32f10x_i2c.o
 .text.I2C_CheckEvent
                0x00000000      0x1a0 build/bsp/Libraries/STM32F10x_StdPeriph_Driver/src/stm32f10x_i2c.o
 .text.I2C_GetLastEvent
                0x00000000       0x78 build/bsp/Libraries/STM32F10x_StdPeriph_Driver/src/stm32f10x_i2c.o
 .text.I2C_GetFlagStatus
                0x00000000      0x1a8 build/bsp/Libraries/STM32F10x_StdPeriph_Driver/src/stm32f10x_i2c.o
 .text.I2C_ClearFlag
                0x00000000       0x7c build/bsp/Libraries/STM32F10x_StdPeriph_Driver/src/stm32f10x_i2c.o
 .text.I2C_GetITStatus
                0x00000000      0x15c build/bsp/Libraries/STM32F10x_StdPeriph_Driver/src/stm32f10x_i2c.o
 .text.I2C_ClearITPendingBit
                0x00000000       0x7c build/bsp/Libraries/STM32F10x_StdPeriph_Driver/src/stm32f10x_i2c.o
 .debug_info    0x00000000      0xbb2 build/bsp/Libraries/STM32F10x_StdPeriph_Driver/src/stm32f10x_i2c.o
 .debug_abbrev  0x00000000      0x15f build/bsp/Libraries/STM32F10x_StdPeriph_Driver/src/stm32f10x_i2c.o
 .debug_loc     0x00000000      0x738 build/bsp/Libraries/STM32F10x_StdPeriph_Driver/src/stm32f10x_i2c.o
 .debug_aranges
                0x00000000      0x120 build/bsp/Libraries/STM32F10x_StdPeriph_Driver/src/stm32f10x_i2c.o
 .debug_ranges  0x00000000      0x110 build/bsp/Libraries/STM32F10x_StdPeriph_Driver/src/stm32f10x_i2c.o
 .debug_line    0x00000000      0x8c0 build/bsp/Libraries/STM32F10x_StdPeriph_Driver/src/stm32f10x_i2c.o
 .debug_str     0x00000000      0x613 build/bsp/Libraries/STM32F10x_StdPeriph_Driver/src/stm32f10x_i2c.o
 .comment       0x00000000       0x31 build/bsp/Libraries/STM32F10x_StdPeriph_Driver/src/stm32f10x_i2c.o
 .ARM.attributes
                0x00000000       0x33 build/bsp/Libraries/STM32F10x_StdPeriph_Driver/src/stm32f10x_i2c.o
 .debug_frame   0x00000000      0x42c build/bsp/Libraries/STM32F10x_StdPeriph_Driver/src/stm32f10x_i2c.o
 .text          0x00000000        0x0 build/bsp/Libraries/STM32F10x_StdPeriph_Driver/src/stm32f10x_adc.o
 .data          0x00000000        0x0 build/bsp/Libraries/STM32F10x_StdPeriph_Driver/src/stm32f10x_adc.o
 .bss           0x00000000        0x0 build/bsp/Libraries/STM32F10x_StdPeriph_Driver/src/stm32f10x_adc.o
 .rodata        0x00000000       0x3c build/bsp/Libraries/STM32F10x_StdPeriph_Driver/src/stm32f10x_adc.o
 .text.ADC_DeInit
                0x00000000       0xc0 build/bsp/Libraries/STM32F10x_StdPeriph_Driver/src/stm32f10x_adc.o
 .text.ADC_Init
                0x00000000      0x274 build/bsp/Libraries/STM32F10x_StdPeriph_Driver/src/stm32f10x_adc.o
 .text.ADC_StructInit
                0x00000000       0x44 build/bsp/Libraries/STM32F10x_StdPeriph_Driver/src/stm32f10x_adc.o
 .text.ADC_Cmd  0x00000000       0x8c build/bsp/Libraries/STM32F10x_StdPeriph_Driver/src/stm32f10x_adc.o
 .text.ADC_DMACmd
                0x00000000       0x7c build/bsp/Libraries/STM32F10x_StdPeriph_Driver/src/stm32f10x_adc.o
 .text.ADC_ITConfig
                0x00000000       0xc0 build/bsp/Libraries/STM32F10x_StdPeriph_Driver/src/stm32f10x_adc.o
 .text.ADC_ResetCalibration
                0x00000000       0x58 build/bsp/Libraries/STM32F10x_StdPeriph_Driver/src/stm32f10x_adc.o
 .text.ADC_GetResetCalibrationStatus
                0x00000000       0x70 build/bsp/Libraries/STM32F10x_StdPeriph_Driver/src/stm32f10x_adc.o
 .text.ADC_StartCalibration
                0x00000000       0x58 build/bsp/Libraries/STM32F10x_StdPeriph_Driver/src/stm32f10x_adc.o
 .text.ADC_GetCalibrationStatus
                0x00000000       0x70 build/bsp/Libraries/STM32F10x_StdPeriph_Driver/src/stm32f10x_adc.o
 .text.ADC_SoftwareStartConvCmd
                0x00000000       0x8c build/bsp/Libraries/STM32F10x_StdPeriph_Driver/src/stm32f10x_adc.o
 .text.ADC_GetSoftwareStartConvStatus
                0x00000000       0x70 build/bsp/Libraries/STM32F10x_StdPeriph_Driver/src/stm32f10x_adc.o
 .text.ADC_DiscModeChannelCountConfig
                0x00000000       0xa0 build/bsp/Libraries/STM32F10x_StdPeriph_Driver/src/stm32f10x_adc.o
 .text.ADC_DiscModeCmd
                0x00000000       0x8c build/bsp/Libraries/STM32F10x_StdPeriph_Driver/src/stm32f10x_adc.o
 .text.ADC_RegularChannelConfig
                0x00000000      0x2cc build/bsp/Libraries/STM32F10x_StdPeriph_Driver/src/stm32f10x_adc.o
 .text.ADC_ExternalTrigConvCmd
                0x00000000       0x8c build/bsp/Libraries/STM32F10x_StdPeriph_Driver/src/stm32f10x_adc.o
 .text.ADC_GetConversionValue
                0x00000000       0x54 build/bsp/Libraries/STM32F10x_StdPeriph_Driver/src/stm32f10x_adc.o
 .text.ADC_GetDualModeConversionValue
                0x00000000       0x18 build/bsp/Libraries/STM32F10x_StdPeriph_Driver/src/stm32f10x_adc.o
 .text.ADC_AutoInjectedConvCmd
                0x00000000       0x8c build/bsp/Libraries/STM32F10x_StdPeriph_Driver/src/stm32f10x_adc.o
 .text.ADC_InjectedDiscModeCmd
                0x00000000       0x8c build/bsp/Libraries/STM32F10x_StdPeriph_Driver/src/stm32f10x_adc.o
 .text.ADC_ExternalTrigInjectedConvConfig
                0x00000000       0xe4 build/bsp/Libraries/STM32F10x_StdPeriph_Driver/src/stm32f10x_adc.o
 .text.ADC_ExternalTrigInjectedConvCmd
                0x00000000       0x8c build/bsp/Libraries/STM32F10x_StdPeriph_Driver/src/stm32f10x_adc.o
 .text.ADC_SoftwareStartInjectedConvCmd
                0x00000000       0x8c build/bsp/Libraries/STM32F10x_StdPeriph_Driver/src/stm32f10x_adc.o
 .text.ADC_GetSoftwareStartInjectedConvCmdStatus
                0x00000000       0x70 build/bsp/Libraries/STM32F10x_StdPeriph_Driver/src/stm32f10x_adc.o
 .text.ADC_InjectedChannelConfig
                0x00000000      0x254 build/bsp/Libraries/STM32F10x_StdPeriph_Driver/src/stm32f10x_adc.o
 .text.ADC_InjectedSequencerLengthConfig
                0x00000000       0xa0 build/bsp/Libraries/STM32F10x_StdPeriph_Driver/src/stm32f10x_adc.o
 .text.ADC_SetInjectedOffset
                0x00000000       0xac build/bsp/Libraries/STM32F10x_StdPeriph_Driver/src/stm32f10x_adc.o
 .text.ADC_GetInjectedConversionValue
                0x00000000       0x94 build/bsp/Libraries/STM32F10x_StdPeriph_Driver/src/stm32f10x_adc.o
 .text.ADC_AnalogWatchdogCmd
                0x00000000       0xcc build/bsp/Libraries/STM32F10x_StdPeriph_Driver/src/stm32f10x_adc.o
 .text.ADC_AnalogWatchdogThresholdsConfig
                0x00000000       0x94 build/bsp/Libraries/STM32F10x_StdPeriph_Driver/src/stm32f10x_adc.o
 .text.ADC_AnalogWatchdogSingleChannelConfig
                0x00000000       0xec build/bsp/Libraries/STM32F10x_StdPeriph_Driver/src/stm32f10x_adc.o
 .text.ADC_TempSensorVrefintCmd
                0x00000000       0x68 build/bsp/Libraries/STM32F10x_StdPeriph_Driver/src/stm32f10x_adc.o
 .text.ADC_GetFlagStatus
                0x00000000       0xa0 build/bsp/Libraries/STM32F10x_StdPeriph_Driver/src/stm32f10x_adc.o
 .text.ADC_ClearFlag
                0x00000000       0x78 build/bsp/Libraries/STM32F10x_StdPeriph_Driver/src/stm32f10x_adc.o
 .text.ADC_GetITStatus
                0x00000000       0xc4 build/bsp/Libraries/STM32F10x_StdPeriph_Driver/src/stm32f10x_adc.o
 .text.ADC_ClearITPendingBit
                0x00000000       0x8c build/bsp/Libraries/STM32F10x_StdPeriph_Driver/src/stm32f10x_adc.o
 .debug_info    0x00000000      0xc2c build/bsp/Libraries/STM32F10x_StdPeriph_Driver/src/stm32f10x_adc.o
 .debug_abbrev  0x00000000      0x176 build/bsp/Libraries/STM32F10x_StdPeriph_Driver/src/stm32f10x_adc.o
 .debug_loc     0x00000000      0x7d4 build/bsp/Libraries/STM32F10x_StdPeriph_Driver/src/stm32f10x_adc.o
 .debug_aranges
                0x00000000      0x138 build/bsp/Libraries/STM32F10x_StdPeriph_Driver/src/stm32f10x_adc.o
 .debug_ranges  0x00000000      0x128 build/bsp/Libraries/STM32F10x_StdPeriph_Driver/src/stm32f10x_adc.o
 .debug_line    0x00000000      0xae8 build/bsp/Libraries/STM32F10x_StdPeriph_Driver/src/stm32f10x_adc.o
 .debug_str     0x00000000      0x6a8 build/bsp/Libraries/STM32F10x_StdPeriph_Driver/src/stm32f10x_adc.o
 .comment       0x00000000       0x31 build/bsp/Libraries/STM32F10x_StdPeriph_Driver/src/stm32f10x_adc.o
 .ARM.attributes
                0x00000000       0x33 build/bsp/Libraries/STM32F10x_StdPeriph_Driver/src/stm32f10x_adc.o
 .debug_frame   0x00000000      0x484 build/bsp/Libraries/STM32F10x_StdPeriph_Driver/src/stm32f10x_adc.o
 .text          0x00000000        0x0 build/bsp/Libraries/STM32F10x_StdPeriph_Driver/src/stm32f10x_dac.o
 .data          0x00000000        0x0 build/bsp/Libraries/STM32F10x_StdPeriph_Driver/src/stm32f10x_dac.o
 .bss           0x00000000        0x0 build/bsp/Libraries/STM32F10x_StdPeriph_Driver/src/stm32f10x_dac.o
 .text.DAC_DeInit
                0x00000000       0x20 build/bsp/Libraries/STM32F10x_StdPeriph_Driver/src/stm32f10x_dac.o
 .rodata        0x00000000       0x3c build/bsp/Libraries/STM32F10x_StdPeriph_Driver/src/stm32f10x_dac.o
 .text.DAC_Init
                0x00000000      0x20c build/bsp/Libraries/STM32F10x_StdPeriph_Driver/src/stm32f10x_dac.o
 .text.DAC_StructInit
                0x00000000       0x34 build/bsp/Libraries/STM32F10x_StdPeriph_Driver/src/stm32f10x_dac.o
 .text.DAC_Cmd  0x00000000       0x98 build/bsp/Libraries/STM32F10x_StdPeriph_Driver/src/stm32f10x_dac.o
 .text.DAC_DMACmd
                0x00000000       0x98 build/bsp/Libraries/STM32F10x_StdPeriph_Driver/src/stm32f10x_dac.o
 .text.DAC_SoftwareTriggerCmd
                0x00000000       0xa0 build/bsp/Libraries/STM32F10x_StdPeriph_Driver/src/stm32f10x_dac.o
 .text.DAC_DualSoftwareTriggerCmd
                0x00000000       0x68 build/bsp/Libraries/STM32F10x_StdPeriph_Driver/src/stm32f10x_dac.o
 .text.DAC_WaveGenerationCmd
                0x00000000       0xb4 build/bsp/Libraries/STM32F10x_StdPeriph_Driver/src/stm32f10x_dac.o
 .text.DAC_SetChannel1Data
                0x00000000       0x74 build/bsp/Libraries/STM32F10x_StdPeriph_Driver/src/stm32f10x_dac.o
 .text.DAC_SetChannel2Data
                0x00000000       0x74 build/bsp/Libraries/STM32F10x_StdPeriph_Driver/src/stm32f10x_dac.o
 .text.DAC_SetDualChannelData
                0x00000000       0xb8 build/bsp/Libraries/STM32F10x_StdPeriph_Driver/src/stm32f10x_dac.o
 .text.DAC_GetDataOutputValue
                0x00000000       0x54 build/bsp/Libraries/STM32F10x_StdPeriph_Driver/src/stm32f10x_dac.o
 .debug_info    0x00000000      0x4f6 build/bsp/Libraries/STM32F10x_StdPeriph_Driver/src/stm32f10x_dac.o
 .debug_abbrev  0x00000000      0x16b build/bsp/Libraries/STM32F10x_StdPeriph_Driver/src/stm32f10x_dac.o
 .debug_loc     0x00000000      0x294 build/bsp/Libraries/STM32F10x_StdPeriph_Driver/src/stm32f10x_dac.o
 .debug_aranges
                0x00000000       0x78 build/bsp/Libraries/STM32F10x_StdPeriph_Driver/src/stm32f10x_dac.o
 .debug_ranges  0x00000000       0x68 build/bsp/Libraries/STM32F10x_StdPeriph_Driver/src/stm32f10x_dac.o
 .debug_line    0x00000000      0x431 build/bsp/Libraries/STM32F10x_StdPeriph_Driver/src/stm32f10x_dac.o
 .debug_str     0x00000000      0x35c build/bsp/Libraries/STM32F10x_StdPeriph_Driver/src/stm32f10x_dac.o
 .comment       0x00000000       0x31 build/bsp/Libraries/STM32F10x_StdPeriph_Driver/src/stm32f10x_dac.o
 .ARM.attributes
                0x00000000       0x33 build/bsp/Libraries/STM32F10x_StdPeriph_Driver/src/stm32f10x_dac.o
 .debug_frame   0x00000000      0x188 build/bsp/Libraries/STM32F10x_StdPeriph_Driver/src/stm32f10x_dac.o
 .text          0x00000000        0x0 build/bsp/Libraries/STM32F10x_StdPeriph_Driver/src/stm32f10x_rtc.o
 .data          0x00000000        0x0 build/bsp/Libraries/STM32F10x_StdPeriph_Driver/src/stm32f10x_rtc.o
 .bss           0x00000000        0x0 build/bsp/Libraries/STM32F10x_StdPeriph_Driver/src/stm32f10x_rtc.o
 .text.RTC_ITConfig
                0x00000000       0x9c build/bsp/Libraries/STM32F10x_StdPeriph_Driver/src/stm32f10x_rtc.o
 .text.RTC_SetAlarm
                0x00000000       0x38 build/bsp/Libraries/STM32F10x_StdPeriph_Driver/src/stm32f10x_rtc.o
 .text.RTC_GetDivider
                0x00000000       0x44 build/bsp/Libraries/STM32F10x_StdPeriph_Driver/src/stm32f10x_rtc.o
 .text.RTC_GetFlagStatus
                0x00000000       0x70 build/bsp/Libraries/STM32F10x_StdPeriph_Driver/src/stm32f10x_rtc.o
 .text.RTC_ClearFlag
                0x00000000       0x58 build/bsp/Libraries/STM32F10x_StdPeriph_Driver/src/stm32f10x_rtc.o
 .text.RTC_GetITStatus
                0x00000000       0x80 build/bsp/Libraries/STM32F10x_StdPeriph_Driver/src/stm32f10x_rtc.o
 .text.RTC_ClearITPendingBit
                0x00000000       0x58 build/bsp/Libraries/STM32F10x_StdPeriph_Driver/src/stm32f10x_rtc.o
 .text          0x00000000        0x0 build/bsp/Libraries/STM32F10x_StdPeriph_Driver/src/stm32f10x_fsmc.o
 .data          0x00000000        0x0 build/bsp/Libraries/STM32F10x_StdPeriph_Driver/src/stm32f10x_fsmc.o
 .bss           0x00000000        0x0 build/bsp/Libraries/STM32F10x_StdPeriph_Driver/src/stm32f10x_fsmc.o
 .rodata        0x00000000       0x3c build/bsp/Libraries/STM32F10x_StdPeriph_Driver/src/stm32f10x_fsmc.o
 .text.FSMC_NORSRAMDeInit
                0x00000000       0x84 build/bsp/Libraries/STM32F10x_StdPeriph_Driver/src/stm32f10x_fsmc.o
 .text.FSMC_NANDDeInit
                0x00000000       0xa8 build/bsp/Libraries/STM32F10x_StdPeriph_Driver/src/stm32f10x_fsmc.o
 .text.FSMC_PCCARDDeInit
                0x00000000       0x50 build/bsp/Libraries/STM32F10x_StdPeriph_Driver/src/stm32f10x_fsmc.o
 .text.FSMC_NORSRAMInit
                0x00000000      0x4d0 build/bsp/Libraries/STM32F10x_StdPeriph_Driver/src/stm32f10x_fsmc.o
 .text.FSMC_NANDInit
                0x00000000      0x2c8 build/bsp/Libraries/STM32F10x_StdPeriph_Driver/src/stm32f10x_fsmc.o
 .text.FSMC_PCCARDInit
                0x00000000      0x25c build/bsp/Libraries/STM32F10x_StdPeriph_Driver/src/stm32f10x_fsmc.o
 .text.FSMC_NORSRAMStructInit
                0x00000000      0x108 build/bsp/Libraries/STM32F10x_StdPeriph_Driver/src/stm32f10x_fsmc.o
 .text.FSMC_NANDStructInit
                0x00000000       0x9c build/bsp/Libraries/STM32F10x_StdPeriph_Driver/src/stm32f10x_fsmc.o
 .text.FSMC_PCCARDStructInit
                0x00000000       0xa4 build/bsp/Libraries/STM32F10x_StdPeriph_Driver/src/stm32f10x_fsmc.o
 .text.FSMC_NORSRAMCmd
                0x00000000       0x9c build/bsp/Libraries/STM32F10x_StdPeriph_Driver/src/stm32f10x_fsmc.o
 .text.FSMC_NANDCmd
                0x00000000       0xd4 build/bsp/Libraries/STM32F10x_StdPeriph_Driver/src/stm32f10x_fsmc.o
 .text.FSMC_PCCARDCmd
                0x00000000       0x6c build/bsp/Libraries/STM32F10x_StdPeriph_Driver/src/stm32f10x_fsmc.o
 .text.FSMC_NANDECCCmd
                0x00000000       0xd4 build/bsp/Libraries/STM32F10x_StdPeriph_Driver/src/stm32f10x_fsmc.o
 .text.FSMC_GetECC
                0x00000000       0x3c build/bsp/Libraries/STM32F10x_StdPeriph_Driver/src/stm32f10x_fsmc.o
 .text.FSMC_ITConfig
                0x00000000      0x140 build/bsp/Libraries/STM32F10x_StdPeriph_Driver/src/stm32f10x_fsmc.o
 .text.FSMC_GetFlagStatus
                0x00000000       0xc0 build/bsp/Libraries/STM32F10x_StdPeriph_Driver/src/stm32f10x_fsmc.o
 .text.FSMC_ClearFlag
                0x00000000       0xc0 build/bsp/Libraries/STM32F10x_StdPeriph_Driver/src/stm32f10x_fsmc.o
 .text.FSMC_GetITStatus
                0x00000000       0xdc build/bsp/Libraries/STM32F10x_StdPeriph_Driver/src/stm32f10x_fsmc.o
 .text.FSMC_ClearITPendingBit
                0x00000000       0xcc build/bsp/Libraries/STM32F10x_StdPeriph_Driver/src/stm32f10x_fsmc.o
 .debug_info    0x00000000      0x9c2 build/bsp/Libraries/STM32F10x_StdPeriph_Driver/src/stm32f10x_fsmc.o
 .debug_abbrev  0x00000000      0x168 build/bsp/Libraries/STM32F10x_StdPeriph_Driver/src/stm32f10x_fsmc.o
 .debug_loc     0x00000000      0x41c build/bsp/Libraries/STM32F10x_StdPeriph_Driver/src/stm32f10x_fsmc.o
 .debug_aranges
                0x00000000       0xb0 build/bsp/Libraries/STM32F10x_StdPeriph_Driver/src/stm32f10x_fsmc.o
 .debug_ranges  0x00000000       0xa0 build/bsp/Libraries/STM32F10x_StdPeriph_Driver/src/stm32f10x_fsmc.o
 .debug_line    0x00000000      0x78c build/bsp/Libraries/STM32F10x_StdPeriph_Driver/src/stm32f10x_fsmc.o
 .debug_str     0x00000000      0x739 build/bsp/Libraries/STM32F10x_StdPeriph_Driver/src/stm32f10x_fsmc.o
 .comment       0x00000000       0x31 build/bsp/Libraries/STM32F10x_StdPeriph_Driver/src/stm32f10x_fsmc.o
 .ARM.attributes
                0x00000000       0x33 build/bsp/Libraries/STM32F10x_StdPeriph_Driver/src/stm32f10x_fsmc.o
 .debug_frame   0x00000000      0x258 build/bsp/Libraries/STM32F10x_StdPeriph_Driver/src/stm32f10x_fsmc.o
 .text          0x00000000        0x0 build/bsp/Libraries/STM32F10x_StdPeriph_Driver/src/stm32f10x_tim.o
 .data          0x00000000        0x0 build/bsp/Libraries/STM32F10x_StdPeriph_Driver/src/stm32f10x_tim.o
 .bss           0x00000000        0x0 build/bsp/Libraries/STM32F10x_StdPeriph_Driver/src/stm32f10x_tim.o
 .rodata        0x00000000       0x3c build/bsp/Libraries/STM32F10x_StdPeriph_Driver/src/stm32f10x_tim.o
 .text.TIM_DeInit
                0x00000000      0x3a8 build/bsp/Libraries/STM32F10x_StdPeriph_Driver/src/stm32f10x_tim.o
 .text.TIM_TimeBaseInit
                0x00000000      0x278 build/bsp/Libraries/STM32F10x_StdPeriph_Driver/src/stm32f10x_tim.o
 .text.TIM_OC1Init
                0x00000000      0x304 build/bsp/Libraries/STM32F10x_StdPeriph_Driver/src/stm32f10x_tim.o
 .text.TIM_OC2Init
                0x00000000      0x2b0 build/bsp/Libraries/STM32F10x_StdPeriph_Driver/src/stm32f10x_tim.o
 .text.TIM_OC3Init
                0x00000000      0x280 build/bsp/Libraries/STM32F10x_StdPeriph_Driver/src/stm32f10x_tim.o
 .text.TIM_OC4Init
                0x00000000      0x1e0 build/bsp/Libraries/STM32F10x_StdPeriph_Driver/src/stm32f10x_tim.o
 .text.TIM_ICInit
                0x00000000      0x400 build/bsp/Libraries/STM32F10x_StdPeriph_Driver/src/stm32f10x_tim.o
 .text.TIM_PWMIConfig
                0x00000000      0x14c build/bsp/Libraries/STM32F10x_StdPeriph_Driver/src/stm32f10x_tim.o
 .text.TIM_BDTRConfig
                0x00000000      0x184 build/bsp/Libraries/STM32F10x_StdPeriph_Driver/src/stm32f10x_tim.o
 .text.TIM_TimeBaseStructInit
                0x00000000       0x3c build/bsp/Libraries/STM32F10x_StdPeriph_Driver/src/stm32f10x_tim.o
 .text.TIM_OCStructInit
                0x00000000       0x54 build/bsp/Libraries/STM32F10x_StdPeriph_Driver/src/stm32f10x_tim.o
 .text.TIM_ICStructInit
                0x00000000       0x3c build/bsp/Libraries/STM32F10x_StdPeriph_Driver/src/stm32f10x_tim.o
 .text.TIM_BDTRStructInit
                0x00000000       0x4c build/bsp/Libraries/STM32F10x_StdPeriph_Driver/src/stm32f10x_tim.o
 .text.TIM_Cmd  0x00000000      0x150 build/bsp/Libraries/STM32F10x_StdPeriph_Driver/src/stm32f10x_tim.o
 .text.TIM_CtrlPWMOutputs
                0x00000000       0xc0 build/bsp/Libraries/STM32F10x_StdPeriph_Driver/src/stm32f10x_tim.o
 .text.TIM_ITConfig
                0x00000000      0x17c build/bsp/Libraries/STM32F10x_StdPeriph_Driver/src/stm32f10x_tim.o
 .text.TIM_GenerateEvent
                0x00000000      0x134 build/bsp/Libraries/STM32F10x_StdPeriph_Driver/src/stm32f10x_tim.o
 .text.TIM_DMAConfig
                0x00000000      0x1d0 build/bsp/Libraries/STM32F10x_StdPeriph_Driver/src/stm32f10x_tim.o
 .text.TIM_DMACmd
                0x00000000      0x128 build/bsp/Libraries/STM32F10x_StdPeriph_Driver/src/stm32f10x_tim.o
 .text.TIM_InternalClockConfig
                0x00000000       0xa8 build/bsp/Libraries/STM32F10x_StdPeriph_Driver/src/stm32f10x_tim.o
 .text.TIM_ITRxExternalClockConfig
                0x00000000       0xe0 build/bsp/Libraries/STM32F10x_StdPeriph_Driver/src/stm32f10x_tim.o
 .text.TIM_TIxExternalClockConfig
                0x00000000      0x134 build/bsp/Libraries/STM32F10x_StdPeriph_Driver/src/stm32f10x_tim.o
 .text.TIM_ETRClockMode1Config
                0x00000000      0x114 build/bsp/Libraries/STM32F10x_StdPeriph_Driver/src/stm32f10x_tim.o
 .text.TIM_ETRClockMode2Config
                0x00000000       0xf4 build/bsp/Libraries/STM32F10x_StdPeriph_Driver/src/stm32f10x_tim.o
 .text.TIM_ETRConfig
                0x00000000      0x108 build/bsp/Libraries/STM32F10x_StdPeriph_Driver/src/stm32f10x_tim.o
 .text.TIM_PrescalerConfig
                0x00000000      0x138 build/bsp/Libraries/STM32F10x_StdPeriph_Driver/src/stm32f10x_tim.o
 .text.TIM_CounterModeConfig
                0x00000000       0xc4 build/bsp/Libraries/STM32F10x_StdPeriph_Driver/src/stm32f10x_tim.o
 .text.TIM_SelectInputTrigger
                0x00000000      0x100 build/bsp/Libraries/STM32F10x_StdPeriph_Driver/src/stm32f10x_tim.o
 .text.TIM_EncoderInterfaceConfig
                0x00000000      0x158 build/bsp/Libraries/STM32F10x_StdPeriph_Driver/src/stm32f10x_tim.o
 .text.TIM_ForcedOC1Config
                0x00000000      0x130 build/bsp/Libraries/STM32F10x_StdPeriph_Driver/src/stm32f10x_tim.o
 .text.TIM_ForcedOC2Config
                0x00000000       0xe0 build/bsp/Libraries/STM32F10x_StdPeriph_Driver/src/stm32f10x_tim.o
 .text.TIM_ForcedOC3Config
                0x00000000       0xb0 build/bsp/Libraries/STM32F10x_StdPeriph_Driver/src/stm32f10x_tim.o
 .text.TIM_ForcedOC4Config
                0x00000000       0xb8 build/bsp/Libraries/STM32F10x_StdPeriph_Driver/src/stm32f10x_tim.o
 .text.TIM_ARRPreloadConfig
                0x00000000      0x150 build/bsp/Libraries/STM32F10x_StdPeriph_Driver/src/stm32f10x_tim.o
 .text.TIM_SelectCOM
                0x00000000       0xb0 build/bsp/Libraries/STM32F10x_StdPeriph_Driver/src/stm32f10x_tim.o
 .text.TIM_SelectCCDMA
                0x00000000       0xe0 build/bsp/Libraries/STM32F10x_StdPeriph_Driver/src/stm32f10x_tim.o
 .text.TIM_CCPreloadControl
                0x00000000       0xc4 build/bsp/Libraries/STM32F10x_StdPeriph_Driver/src/stm32f10x_tim.o
 .text.TIM_OC1PreloadConfig
                0x00000000      0x130 build/bsp/Libraries/STM32F10x_StdPeriph_Driver/src/stm32f10x_tim.o
 .text.TIM_OC2PreloadConfig
                0x00000000       0xe0 build/bsp/Libraries/STM32F10x_StdPeriph_Driver/src/stm32f10x_tim.o
 .text.TIM_OC3PreloadConfig
                0x00000000       0xb0 build/bsp/Libraries/STM32F10x_StdPeriph_Driver/src/stm32f10x_tim.o
 .text.TIM_OC4PreloadConfig
                0x00000000       0xb8 build/bsp/Libraries/STM32F10x_StdPeriph_Driver/src/stm32f10x_tim.o
 .text.TIM_OC1FastConfig
                0x00000000      0x130 build/bsp/Libraries/STM32F10x_StdPeriph_Driver/src/stm32f10x_tim.o
 .text.TIM_OC2FastConfig
                0x00000000       0xe0 build/bsp/Libraries/STM32F10x_StdPeriph_Driver/src/stm32f10x_tim.o
 .text.TIM_OC3FastConfig
                0x00000000       0xb0 build/bsp/Libraries/STM32F10x_StdPeriph_Driver/src/stm32f10x_tim.o
 .text.TIM_OC4FastConfig
                0x00000000       0xb8 build/bsp/Libraries/STM32F10x_StdPeriph_Driver/src/stm32f10x_tim.o
 .text.TIM_ClearOC1Ref
                0x00000000       0xb0 build/bsp/Libraries/STM32F10x_StdPeriph_Driver/src/stm32f10x_tim.o
 .text.TIM_ClearOC2Ref
                0x00000000       0xbc build/bsp/Libraries/STM32F10x_StdPeriph_Driver/src/stm32f10x_tim.o
 .text.TIM_ClearOC3Ref
                0x00000000       0xb0 build/bsp/Libraries/STM32F10x_StdPeriph_Driver/src/stm32f10x_tim.o
 .text.TIM_ClearOC4Ref
                0x00000000       0xbc build/bsp/Libraries/STM32F10x_StdPeriph_Driver/src/stm32f10x_tim.o
 .text.TIM_OC1PolarityConfig
                0x00000000      0x130 build/bsp/Libraries/STM32F10x_StdPeriph_Driver/src/stm32f10x_tim.o
 .text.TIM_OC1NPolarityConfig
                0x00000000       0xa8 build/bsp/Libraries/STM32F10x_StdPeriph_Driver/src/stm32f10x_tim.o
 .text.TIM_OC2PolarityConfig
                0x00000000       0xe0 build/bsp/Libraries/STM32F10x_StdPeriph_Driver/src/stm32f10x_tim.o
 .text.TIM_OC2NPolarityConfig
                0x00000000       0x84 build/bsp/Libraries/STM32F10x_StdPeriph_Driver/src/stm32f10x_tim.o
 .text.TIM_OC3PolarityConfig
                0x00000000       0xb8 build/bsp/Libraries/STM32F10x_StdPeriph_Driver/src/stm32f10x_tim.o
 .text.TIM_OC3NPolarityConfig
                0x00000000       0x84 build/bsp/Libraries/STM32F10x_StdPeriph_Driver/src/stm32f10x_tim.o
 .text.TIM_OC4PolarityConfig
                0x00000000       0xb8 build/bsp/Libraries/STM32F10x_StdPeriph_Driver/src/stm32f10x_tim.o
 .text.TIM_CCxCmd
                0x00000000      0x178 build/bsp/Libraries/STM32F10x_StdPeriph_Driver/src/stm32f10x_tim.o
 .text.TIM_CCxNCmd
                0x00000000       0xec build/bsp/Libraries/STM32F10x_StdPeriph_Driver/src/stm32f10x_tim.o
 .text.TIM_SelectOCxM
                0x00000000      0x1fc build/bsp/Libraries/STM32F10x_StdPeriph_Driver/src/stm32f10x_tim.o
 .text.TIM_UpdateDisableConfig
                0x00000000      0x150 build/bsp/Libraries/STM32F10x_StdPeriph_Driver/src/stm32f10x_tim.o
 .text.TIM_UpdateRequestConfig
                0x00000000      0x150 build/bsp/Libraries/STM32F10x_StdPeriph_Driver/src/stm32f10x_tim.o
 .text.TIM_SelectHallSensor
                0x00000000       0xe0 build/bsp/Libraries/STM32F10x_StdPeriph_Driver/src/stm32f10x_tim.o
 .text.TIM_SelectOnePulseMode
                0x00000000      0x148 build/bsp/Libraries/STM32F10x_StdPeriph_Driver/src/stm32f10x_tim.o
 .text.TIM_SelectOutputTrigger
                0x00000000      0x118 build/bsp/Libraries/STM32F10x_StdPeriph_Driver/src/stm32f10x_tim.o
 .text.TIM_SelectSlaveMode
                0x00000000       0xe4 build/bsp/Libraries/STM32F10x_StdPeriph_Driver/src/stm32f10x_tim.o
 .text.TIM_SelectMasterSlaveMode
                0x00000000       0xd8 build/bsp/Libraries/STM32F10x_StdPeriph_Driver/src/stm32f10x_tim.o
 .text.TIM_SetCounter
                0x00000000      0x114 build/bsp/Libraries/STM32F10x_StdPeriph_Driver/src/stm32f10x_tim.o
 .text.TIM_SetAutoreload
                0x00000000      0x114 build/bsp/Libraries/STM32F10x_StdPeriph_Driver/src/stm32f10x_tim.o
 .text.TIM_SetCompare1
                0x00000000       0xf8 build/bsp/Libraries/STM32F10x_StdPeriph_Driver/src/stm32f10x_tim.o
 .text.TIM_SetCompare2
                0x00000000       0xa4 build/bsp/Libraries/STM32F10x_StdPeriph_Driver/src/stm32f10x_tim.o
 .text.TIM_SetCompare3
                0x00000000       0x78 build/bsp/Libraries/STM32F10x_StdPeriph_Driver/src/stm32f10x_tim.o
 .text.TIM_SetCompare4
                0x00000000       0x7c build/bsp/Libraries/STM32F10x_StdPeriph_Driver/src/stm32f10x_tim.o
 .text.TIM_SetIC1Prescaler
                0x00000000      0x138 build/bsp/Libraries/STM32F10x_StdPeriph_Driver/src/stm32f10x_tim.o
 .text.TIM_SetIC2Prescaler
                0x00000000       0xec build/bsp/Libraries/STM32F10x_StdPeriph_Driver/src/stm32f10x_tim.o
 .text.TIM_SetIC3Prescaler
                0x00000000       0xbc build/bsp/Libraries/STM32F10x_StdPeriph_Driver/src/stm32f10x_tim.o
 .text.TIM_SetIC4Prescaler
                0x00000000       0xc0 build/bsp/Libraries/STM32F10x_StdPeriph_Driver/src/stm32f10x_tim.o
 .text.TIM_SetClockDivision
                0x00000000      0x138 build/bsp/Libraries/STM32F10x_StdPeriph_Driver/src/stm32f10x_tim.o
 .text.TIM_GetCapture1
                0x00000000       0xf4 build/bsp/Libraries/STM32F10x_StdPeriph_Driver/src/stm32f10x_tim.o
 .text.TIM_GetCapture2
                0x00000000       0xa0 build/bsp/Libraries/STM32F10x_StdPeriph_Driver/src/stm32f10x_tim.o
 .text.TIM_GetCapture3
                0x00000000       0x78 build/bsp/Libraries/STM32F10x_StdPeriph_Driver/src/stm32f10x_tim.o
 .text.TIM_GetCapture4
                0x00000000       0x78 build/bsp/Libraries/STM32F10x_StdPeriph_Driver/src/stm32f10x_tim.o
 .text.TIM_GetCounter
                0x00000000      0x110 build/bsp/Libraries/STM32F10x_StdPeriph_Driver/src/stm32f10x_tim.o
 .text.TIM_GetPrescaler
                0x00000000      0x110 build/bsp/Libraries/STM32F10x_StdPeriph_Driver/src/stm32f10x_tim.o
 .text.TIM_GetFlagStatus
                0x00000000      0x194 build/bsp/Libraries/STM32F10x_StdPeriph_Driver/src/stm32f10x_tim.o
 .text.TIM_ClearFlag
                0x00000000      0x138 build/bsp/Libraries/STM32F10x_StdPeriph_Driver/src/stm32f10x_tim.o
 .text.TIM_GetITStatus
                0x00000000      0x194 build/bsp/Libraries/STM32F10x_StdPeriph_Driver/src/stm32f10x_tim.o
 .text.TIM_ClearITPendingBit
                0x00000000      0x138 build/bsp/Libraries/STM32F10x_StdPeriph_Driver/src/stm32f10x_tim.o
 .text.TI1_Config
                0x00000000       0xe4 build/bsp/Libraries/STM32F10x_StdPeriph_Driver/src/stm32f10x_tim.o
 .text.TI2_Config
                0x00000000      0x104 build/bsp/Libraries/STM32F10x_StdPeriph_Driver/src/stm32f10x_tim.o
 .text.TI3_Config
                0x00000000       0xf4 build/bsp/Libraries/STM32F10x_StdPeriph_Driver/src/stm32f10x_tim.o
 .text.TI4_Config
                0x00000000      0x10c build/bsp/Libraries/STM32F10x_StdPeriph_Driver/src/stm32f10x_tim.o
 .debug_info    0x00000000     0x1e36 build/bsp/Libraries/STM32F10x_StdPeriph_Driver/src/stm32f10x_tim.o
 .debug_abbrev  0x00000000      0x174 build/bsp/Libraries/STM32F10x_StdPeriph_Driver/src/stm32f10x_tim.o
 .debug_loc     0x00000000     0x13e8 build/bsp/Libraries/STM32F10x_StdPeriph_Driver/src/stm32f10x_tim.o
 .debug_aranges
                0x00000000      0x2f0 build/bsp/Libraries/STM32F10x_StdPeriph_Driver/src/stm32f10x_tim.o
 .debug_ranges  0x00000000      0x2e0 build/bsp/Libraries/STM32F10x_StdPeriph_Driver/src/stm32f10x_tim.o
 .debug_line    0x00000000     0x248b build/bsp/Libraries/STM32F10x_StdPeriph_Driver/src/stm32f10x_tim.o
 .debug_str     0x00000000      0xd8a build/bsp/Libraries/STM32F10x_StdPeriph_Driver/src/stm32f10x_tim.o
 .comment       0x00000000       0x31 build/bsp/Libraries/STM32F10x_StdPeriph_Driver/src/stm32f10x_tim.o
 .ARM.attributes
                0x00000000       0x33 build/bsp/Libraries/STM32F10x_StdPeriph_Driver/src/stm32f10x_tim.o
 .debug_frame   0x00000000      0xb50 build/bsp/Libraries/STM32F10x_StdPeriph_Driver/src/stm32f10x_tim.o
 .text          0x00000000        0x0 build/bsp/Libraries/STM32F10x_StdPeriph_Driver/src/stm32f10x_iwdg.o
 .data          0x00000000        0x0 build/bsp/Libraries/STM32F10x_StdPeriph_Driver/src/stm32f10x_iwdg.o
 .bss           0x00000000        0x0 build/bsp/Libraries/STM32F10x_StdPeriph_Driver/src/stm32f10x_iwdg.o
 .rodata        0x00000000       0x3c build/bsp/Libraries/STM32F10x_StdPeriph_Driver/src/stm32f10x_iwdg.o
 .text.IWDG_WriteAccessCmd
                0x00000000       0x40 build/bsp/Libraries/STM32F10x_StdPeriph_Driver/src/stm32f10x_iwdg.o
 .text.IWDG_SetPrescaler
                0x00000000       0x58 build/bsp/Libraries/STM32F10x_StdPeriph_Driver/src/stm32f10x_iwdg.o
 .text.IWDG_SetReload
                0x00000000       0x38 build/bsp/Libraries/STM32F10x_StdPeriph_Driver/src/stm32f10x_iwdg.o
 .text.IWDG_ReloadCounter
                0x00000000       0x18 build/bsp/Libraries/STM32F10x_StdPeriph_Driver/src/stm32f10x_iwdg.o
 .text.IWDG_Enable
                0x00000000       0x18 build/bsp/Libraries/STM32F10x_StdPeriph_Driver/src/stm32f10x_iwdg.o
 .text.IWDG_GetFlagStatus
                0x00000000       0x58 build/bsp/Libraries/STM32F10x_StdPeriph_Driver/src/stm32f10x_iwdg.o
 .debug_info    0x00000000      0x21e build/bsp/Libraries/STM32F10x_StdPeriph_Driver/src/stm32f10x_iwdg.o
 .debug_abbrev  0x00000000       0xfc build/bsp/Libraries/STM32F10x_StdPeriph_Driver/src/stm32f10x_iwdg.o
 .debug_loc     0x00000000      0x138 build/bsp/Libraries/STM32F10x_StdPeriph_Driver/src/stm32f10x_iwdg.o
 .debug_aranges
                0x00000000       0x48 build/bsp/Libraries/STM32F10x_StdPeriph_Driver/src/stm32f10x_iwdg.o
 .debug_ranges  0x00000000       0x38 build/bsp/Libraries/STM32F10x_StdPeriph_Driver/src/stm32f10x_iwdg.o
 .debug_line    0x00000000      0x1fa build/bsp/Libraries/STM32F10x_StdPeriph_Driver/src/stm32f10x_iwdg.o
 .debug_str     0x00000000      0x209 build/bsp/Libraries/STM32F10x_StdPeriph_Driver/src/stm32f10x_iwdg.o
 .comment       0x00000000       0x31 build/bsp/Libraries/STM32F10x_StdPeriph_Driver/src/stm32f10x_iwdg.o
 .ARM.attributes
                0x00000000       0x33 build/bsp/Libraries/STM32F10x_StdPeriph_Driver/src/stm32f10x_iwdg.o
 .debug_frame   0x00000000       0xc0 build/bsp/Libraries/STM32F10x_StdPeriph_Driver/src/stm32f10x_iwdg.o
 .text          0x00000000        0x0 build/bsp/Libraries/STM32F10x_StdPeriph_Driver/src/stm32f10x_spi.o
 .data          0x00000000        0x0 build/bsp/Libraries/STM32F10x_StdPeriph_Driver/src/stm32f10x_spi.o
 .bss           0x00000000        0x0 build/bsp/Libraries/STM32F10x_StdPeriph_Driver/src/stm32f10x_spi.o
 .rodata        0x00000000       0x3c build/bsp/Libraries/STM32F10x_StdPeriph_Driver/src/stm32f10x_spi.o
 .text.SPI_I2S_DeInit
                0x00000000       0xc0 build/bsp/Libraries/STM32F10x_StdPeriph_Driver/src/stm32f10x_spi.o
 .text.SPI_Init
                0x00000000      0x224 build/bsp/Libraries/STM32F10x_StdPeriph_Driver/src/stm32f10x_spi.o
 .text.I2S_Init
                0x00000000      0x2d8 build/bsp/Libraries/STM32F10x_StdPeriph_Driver/src/stm32f10x_spi.o
 .text.SPI_StructInit
                0x00000000       0x5c build/bsp/Libraries/STM32F10x_StdPeriph_Driver/src/stm32f10x_spi.o
 .text.I2S_StructInit
                0x00000000       0x44 build/bsp/Libraries/STM32F10x_StdPeriph_Driver/src/stm32f10x_spi.o
 .text.SPI_Cmd  0x00000000       0x94 build/bsp/Libraries/STM32F10x_StdPeriph_Driver/src/stm32f10x_spi.o
 .text.I2S_Cmd  0x00000000       0x84 build/bsp/Libraries/STM32F10x_StdPeriph_Driver/src/stm32f10x_spi.o
 .text.SPI_I2S_ITConfig
                0x00000000       0xe0 build/bsp/Libraries/STM32F10x_StdPeriph_Driver/src/stm32f10x_spi.o
 .text.SPI_I2S_DMACmd
                0x00000000       0xc0 build/bsp/Libraries/STM32F10x_StdPeriph_Driver/src/stm32f10x_spi.o
 .text.SPI_I2S_SendData
                0x00000000       0x54 build/bsp/Libraries/STM32F10x_StdPeriph_Driver/src/stm32f10x_spi.o
 .text.SPI_I2S_ReceiveData
                0x00000000       0x54 build/bsp/Libraries/STM32F10x_StdPeriph_Driver/src/stm32f10x_spi.o
 .text.SPI_NSSInternalSoftwareConfig
                0x00000000       0x9c build/bsp/Libraries/STM32F10x_StdPeriph_Driver/src/stm32f10x_spi.o
 .text.SPI_SSOutputCmd
                0x00000000       0x94 build/bsp/Libraries/STM32F10x_StdPeriph_Driver/src/stm32f10x_spi.o
 .text.SPI_DataSizeConfig
                0x00000000       0x8c build/bsp/Libraries/STM32F10x_StdPeriph_Driver/src/stm32f10x_spi.o
 .text.SPI_TransmitCRC
                0x00000000       0x5c build/bsp/Libraries/STM32F10x_StdPeriph_Driver/src/stm32f10x_spi.o
 .text.SPI_CalculateCRC
                0x00000000       0x94 build/bsp/Libraries/STM32F10x_StdPeriph_Driver/src/stm32f10x_spi.o
 .text.SPI_GetCRC
                0x00000000       0x88 build/bsp/Libraries/STM32F10x_StdPeriph_Driver/src/stm32f10x_spi.o
 .text.SPI_GetCRCPolynomial
                0x00000000       0x54 build/bsp/Libraries/STM32F10x_StdPeriph_Driver/src/stm32f10x_spi.o
 .text.SPI_BiDirectionalLineConfig
                0x00000000       0x9c build/bsp/Libraries/STM32F10x_StdPeriph_Driver/src/stm32f10x_spi.o
 .text.SPI_I2S_GetFlagStatus
                0x00000000       0xb8 build/bsp/Libraries/STM32F10x_StdPeriph_Driver/src/stm32f10x_spi.o
 .text.SPI_I2S_ClearFlag
                0x00000000       0x70 build/bsp/Libraries/STM32F10x_StdPeriph_Driver/src/stm32f10x_spi.o
 .text.SPI_I2S_GetITStatus
                0x00000000       0xf4 build/bsp/Libraries/STM32F10x_StdPeriph_Driver/src/stm32f10x_spi.o
 .text.SPI_I2S_ClearITPendingBit
                0x00000000       0x88 build/bsp/Libraries/STM32F10x_StdPeriph_Driver/src/stm32f10x_spi.o
 .debug_info    0x00000000      0x98f build/bsp/Libraries/STM32F10x_StdPeriph_Driver/src/stm32f10x_spi.o
 .debug_abbrev  0x00000000      0x15f build/bsp/Libraries/STM32F10x_StdPeriph_Driver/src/stm32f10x_spi.o
 .debug_loc     0x00000000      0x508 build/bsp/Libraries/STM32F10x_StdPeriph_Driver/src/stm32f10x_spi.o
 .debug_aranges
                0x00000000       0xd0 build/bsp/Libraries/STM32F10x_StdPeriph_Driver/src/stm32f10x_spi.o
 .debug_ranges  0x00000000       0xc0 build/bsp/Libraries/STM32F10x_StdPeriph_Driver/src/stm32f10x_spi.o
 .debug_line    0x00000000      0x72c build/bsp/Libraries/STM32F10x_StdPeriph_Driver/src/stm32f10x_spi.o
 .debug_str     0x00000000      0x5aa build/bsp/Libraries/STM32F10x_StdPeriph_Driver/src/stm32f10x_spi.o
 .comment       0x00000000       0x31 build/bsp/Libraries/STM32F10x_StdPeriph_Driver/src/stm32f10x_spi.o
 .ARM.attributes
                0x00000000       0x33 build/bsp/Libraries/STM32F10x_StdPeriph_Driver/src/stm32f10x_spi.o
 .debug_frame   0x00000000      0x2e8 build/bsp/Libraries/STM32F10x_StdPeriph_Driver/src/stm32f10x_spi.o
 .text          0x00000000        0x0 build/bsp/Libraries/STM32F10x_StdPeriph_Driver/src/stm32f10x_flash.o
 .data          0x00000000        0x0 build/bsp/Libraries/STM32F10x_StdPeriph_Driver/src/stm32f10x_flash.o
 .bss           0x00000000        0x0 build/bsp/Libraries/STM32F10x_StdPeriph_Driver/src/stm32f10x_flash.o
 .rodata        0x00000000       0x3c build/bsp/Libraries/STM32F10x_StdPeriph_Driver/src/stm32f10x_flash.o
 .text.FLASH_SetLatency
                0x00000000       0x60 build/bsp/Libraries/STM32F10x_StdPeriph_Driver/src/stm32f10x_flash.o
 .text.FLASH_HalfCycleAccessCmd
                0x00000000       0x5c build/bsp/Libraries/STM32F10x_StdPeriph_Driver/src/stm32f10x_flash.o
 .text.FLASH_PrefetchBufferCmd
                0x00000000       0x5c build/bsp/Libraries/STM32F10x_StdPeriph_Driver/src/stm32f10x_flash.o
 .text.FLASH_Unlock
                0x00000000       0x30 build/bsp/Libraries/STM32F10x_StdPeriph_Driver/src/stm32f10x_flash.o
 .text.FLASH_UnlockBank1
                0x00000000       0x30 build/bsp/Libraries/STM32F10x_StdPeriph_Driver/src/stm32f10x_flash.o
 .text.FLASH_Lock
                0x00000000       0x24 build/bsp/Libraries/STM32F10x_StdPeriph_Driver/src/stm32f10x_flash.o
 .text.FLASH_LockBank1
                0x00000000       0x24 build/bsp/Libraries/STM32F10x_StdPeriph_Driver/src/stm32f10x_flash.o
 .text.FLASH_ErasePage
                0x00000000       0xb8 build/bsp/Libraries/STM32F10x_StdPeriph_Driver/src/stm32f10x_flash.o
 .text.FLASH_EraseAllPages
                0x00000000       0x80 build/bsp/Libraries/STM32F10x_StdPeriph_Driver/src/stm32f10x_flash.o
 .text.FLASH_EraseAllBank1Pages
                0x00000000       0x80 build/bsp/Libraries/STM32F10x_StdPeriph_Driver/src/stm32f10x_flash.o
 .text.FLASH_EraseOptionBytes
                0x00000000      0x134 build/bsp/Libraries/STM32F10x_StdPeriph_Driver/src/stm32f10x_flash.o
 .text.FLASH_ProgramWord
                0x00000000       0xe4 build/bsp/Libraries/STM32F10x_StdPeriph_Driver/src/stm32f10x_flash.o
 .text.FLASH_ProgramHalfWord
                0x00000000       0x9c build/bsp/Libraries/STM32F10x_StdPeriph_Driver/src/stm32f10x_flash.o
 .text.FLASH_ProgramOptionByteData
                0x00000000       0xcc build/bsp/Libraries/STM32F10x_StdPeriph_Driver/src/stm32f10x_flash.o
 .text.FLASH_EnableWriteProtection
                0x00000000      0x170 build/bsp/Libraries/STM32F10x_StdPeriph_Driver/src/stm32f10x_flash.o
 .text.FLASH_ReadOutProtection
                0x00000000      0x158 build/bsp/Libraries/STM32F10x_StdPeriph_Driver/src/stm32f10x_flash.o
 .text.FLASH_UserOptionByteConfig
                0x00000000      0x110 build/bsp/Libraries/STM32F10x_StdPeriph_Driver/src/stm32f10x_flash.o
 .text.FLASH_GetUserOptionByte
                0x00000000       0x1c build/bsp/Libraries/STM32F10x_StdPeriph_Driver/src/stm32f10x_flash.o
 .text.FLASH_GetWriteProtectionOptionByte
                0x00000000       0x18 build/bsp/Libraries/STM32F10x_StdPeriph_Driver/src/stm32f10x_flash.o
 .text.FLASH_GetReadOutProtectionStatus
                0x00000000       0x3c build/bsp/Libraries/STM32F10x_StdPeriph_Driver/src/stm32f10x_flash.o
 .text.FLASH_GetPrefetchBufferStatus
                0x00000000       0x3c build/bsp/Libraries/STM32F10x_StdPeriph_Driver/src/stm32f10x_flash.o
 .text.FLASH_ITConfig
                0x00000000       0x8c build/bsp/Libraries/STM32F10x_StdPeriph_Driver/src/stm32f10x_flash.o
 .text.FLASH_GetFlagStatus
                0x00000000       0xac build/bsp/Libraries/STM32F10x_StdPeriph_Driver/src/stm32f10x_flash.o
 .text.FLASH_ClearFlag
                0x00000000       0x3c build/bsp/Libraries/STM32F10x_StdPeriph_Driver/src/stm32f10x_flash.o
 .text.FLASH_GetStatus
                0x00000000       0x70 build/bsp/Libraries/STM32F10x_StdPeriph_Driver/src/stm32f10x_flash.o
 .text.FLASH_GetBank1Status
                0x00000000       0x70 build/bsp/Libraries/STM32F10x_StdPeriph_Driver/src/stm32f10x_flash.o
 .text.FLASH_WaitForLastOperation
                0x00000000       0x4c build/bsp/Libraries/STM32F10x_StdPeriph_Driver/src/stm32f10x_flash.o
 .text.FLASH_WaitForLastBank1Operation
                0x00000000       0x4c build/bsp/Libraries/STM32F10x_StdPeriph_Driver/src/stm32f10x_flash.o
 .debug_info    0x00000000      0x837 build/bsp/Libraries/STM32F10x_StdPeriph_Driver/src/stm32f10x_flash.o
 .debug_abbrev  0x00000000      0x164 build/bsp/Libraries/STM32F10x_StdPeriph_Driver/src/stm32f10x_flash.o
 .debug_loc     0x00000000      0x5d8 build/bsp/Libraries/STM32F10x_StdPeriph_Driver/src/stm32f10x_flash.o
 .debug_aranges
                0x00000000       0xf8 build/bsp/Libraries/STM32F10x_StdPeriph_Driver/src/stm32f10x_flash.o
 .debug_ranges  0x00000000       0xe8 build/bsp/Libraries/STM32F10x_StdPeriph_Driver/src/stm32f10x_flash.o
 .debug_line    0x00000000      0x55f build/bsp/Libraries/STM32F10x_StdPeriph_Driver/src/stm32f10x_flash.o
 .debug_str     0x00000000      0x595 build/bsp/Libraries/STM32F10x_StdPeriph_Driver/src/stm32f10x_flash.o
 .comment       0x00000000       0x31 build/bsp/Libraries/STM32F10x_StdPeriph_Driver/src/stm32f10x_flash.o
 .ARM.attributes
                0x00000000       0x33 build/bsp/Libraries/STM32F10x_StdPeriph_Driver/src/stm32f10x_flash.o
 .debug_frame   0x00000000      0x350 build/bsp/Libraries/STM32F10x_StdPeriph_Driver/src/stm32f10x_flash.o
 .text          0x00000000        0x0 build/bsp/Libraries/STM32F10x_StdPeriph_Driver/src/stm32f10x_sdio.o
 .data          0x00000000        0x0 build/bsp/Libraries/STM32F10x_StdPeriph_Driver/src/stm32f10x_sdio.o
 .bss           0x00000000        0x0 build/bsp/Libraries/STM32F10x_StdPeriph_Driver/src/stm32f10x_sdio.o
 .text.SDIO_DeInit
                0x00000000       0x8c build/bsp/Libraries/STM32F10x_StdPeriph_Driver/src/stm32f10x_sdio.o
 .rodata        0x00000000       0x3c build/bsp/Libraries/STM32F10x_StdPeriph_Driver/src/stm32f10x_sdio.o
 .text.SDIO_Init
                0x00000000      0x118 build/bsp/Libraries/STM32F10x_StdPeriph_Driver/src/stm32f10x_sdio.o
 .text.SDIO_StructInit
                0x00000000       0x44 build/bsp/Libraries/STM32F10x_StdPeriph_Driver/src/stm32f10x_sdio.o
 .text.SDIO_ClockCmd
                0x00000000       0x3c build/bsp/Libraries/STM32F10x_StdPeriph_Driver/src/stm32f10x_sdio.o
 .text.SDIO_SetPowerState
                0x00000000       0x5c build/bsp/Libraries/STM32F10x_StdPeriph_Driver/src/stm32f10x_sdio.o
 .text.SDIO_GetPowerState
                0x00000000       0x1c build/bsp/Libraries/STM32F10x_StdPeriph_Driver/src/stm32f10x_sdio.o
 .text.SDIO_ITConfig
                0x00000000       0x8c build/bsp/Libraries/STM32F10x_StdPeriph_Driver/src/stm32f10x_sdio.o
 .text.SDIO_DMACmd
                0x00000000       0x3c build/bsp/Libraries/STM32F10x_StdPeriph_Driver/src/stm32f10x_sdio.o
 .text.SDIO_SendCommand
                0x00000000       0xf4 build/bsp/Libraries/STM32F10x_StdPeriph_Driver/src/stm32f10x_sdio.o
 .text.SDIO_CmdStructInit
                0x00000000       0x3c build/bsp/Libraries/STM32F10x_StdPeriph_Driver/src/stm32f10x_sdio.o
 .text.SDIO_GetCommandResponse
                0x00000000       0x18 build/bsp/Libraries/STM32F10x_StdPeriph_Driver/src/stm32f10x_sdio.o
 .text.SDIO_GetResponse
                0x00000000       0x54 build/bsp/Libraries/STM32F10x_StdPeriph_Driver/src/stm32f10x_sdio.o
 .text.SDIO_DataConfig
                0x00000000      0x174 build/bsp/Libraries/STM32F10x_StdPeriph_Driver/src/stm32f10x_sdio.o
 .text.SDIO_DataStructInit
                0x00000000       0x44 build/bsp/Libraries/STM32F10x_StdPeriph_Driver/src/stm32f10x_sdio.o
 .text.SDIO_GetDataCounter
                0x00000000       0x18 build/bsp/Libraries/STM32F10x_StdPeriph_Driver/src/stm32f10x_sdio.o
 .text.SDIO_ReadData
                0x00000000       0x18 build/bsp/Libraries/STM32F10x_StdPeriph_Driver/src/stm32f10x_sdio.o
 .text.SDIO_WriteData
                0x00000000       0x20 build/bsp/Libraries/STM32F10x_StdPeriph_Driver/src/stm32f10x_sdio.o
 .text.SDIO_GetFIFOCount
                0x00000000       0x18 build/bsp/Libraries/STM32F10x_StdPeriph_Driver/src/stm32f10x_sdio.o
 .text.SDIO_StartSDIOReadWait
                0x00000000       0x3c build/bsp/Libraries/STM32F10x_StdPeriph_Driver/src/stm32f10x_sdio.o
 .text.SDIO_StopSDIOReadWait
                0x00000000       0x3c build/bsp/Libraries/STM32F10x_StdPeriph_Driver/src/stm32f10x_sdio.o
 .text.SDIO_SetSDIOReadWaitMode
                0x00000000       0x38 build/bsp/Libraries/STM32F10x_StdPeriph_Driver/src/stm32f10x_sdio.o
 .text.SDIO_SetSDIOOperation
                0x00000000       0x3c build/bsp/Libraries/STM32F10x_StdPeriph_Driver/src/stm32f10x_sdio.o
 .text.SDIO_SendSDIOSuspendCmd
                0x00000000       0x3c build/bsp/Libraries/STM32F10x_StdPeriph_Driver/src/stm32f10x_sdio.o
 .text.SDIO_CommandCompletionCmd
                0x00000000       0x3c build/bsp/Libraries/STM32F10x_StdPeriph_Driver/src/stm32f10x_sdio.o
 .text.SDIO_CEATAITCmd
                0x00000000       0x48 build/bsp/Libraries/STM32F10x_StdPeriph_Driver/src/stm32f10x_sdio.o
 .text.SDIO_SendCEATACmd
                0x00000000       0x3c build/bsp/Libraries/STM32F10x_StdPeriph_Driver/src/stm32f10x_sdio.o
 .text.SDIO_GetFlagStatus
                0x00000000       0xfc build/bsp/Libraries/STM32F10x_StdPeriph_Driver/src/stm32f10x_sdio.o
 .text.SDIO_ClearFlag
                0x00000000       0x44 build/bsp/Libraries/STM32F10x_StdPeriph_Driver/src/stm32f10x_sdio.o
 .text.SDIO_GetITStatus
                0x00000000       0xfc build/bsp/Libraries/STM32F10x_StdPeriph_Driver/src/stm32f10x_sdio.o
 .text.SDIO_ClearITPendingBit
                0x00000000       0x44 build/bsp/Libraries/STM32F10x_StdPeriph_Driver/src/stm32f10x_sdio.o
 .debug_info    0x00000000      0x8a2 build/bsp/Libraries/STM32F10x_StdPeriph_Driver/src/stm32f10x_sdio.o
 .debug_abbrev  0x00000000      0x1a4 build/bsp/Libraries/STM32F10x_StdPeriph_Driver/src/stm32f10x_sdio.o
 .debug_loc     0x00000000      0x648 build/bsp/Libraries/STM32F10x_StdPeriph_Driver/src/stm32f10x_sdio.o
 .debug_aranges
                0x00000000      0x108 build/bsp/Libraries/STM32F10x_StdPeriph_Driver/src/stm32f10x_sdio.o
 .debug_ranges  0x00000000       0xf8 build/bsp/Libraries/STM32F10x_StdPeriph_Driver/src/stm32f10x_sdio.o
 .debug_line    0x00000000      0x6a4 build/bsp/Libraries/STM32F10x_StdPeriph_Driver/src/stm32f10x_sdio.o
 .debug_str     0x00000000      0x5dc build/bsp/Libraries/STM32F10x_StdPeriph_Driver/src/stm32f10x_sdio.o
 .comment       0x00000000       0x31 build/bsp/Libraries/STM32F10x_StdPeriph_Driver/src/stm32f10x_sdio.o
 .ARM.attributes
                0x00000000       0x33 build/bsp/Libraries/STM32F10x_StdPeriph_Driver/src/stm32f10x_sdio.o
 .debug_frame   0x00000000      0x390 build/bsp/Libraries/STM32F10x_StdPeriph_Driver/src/stm32f10x_sdio.o
 .text          0x00000000        0x0 build/bsp/Libraries/STM32F10x_StdPeriph_Driver/src/stm32f10x_gpio.o
 .data          0x00000000        0x0 build/bsp/Libraries/STM32F10x_StdPeriph_Driver/src/stm32f10x_gpio.o
 .bss           0x00000000        0x0 build/bsp/Libraries/STM32F10x_StdPeriph_Driver/src/stm32f10x_gpio.o
 .text.GPIO_DeInit
                0x00000000      0x198 build/bsp/Libraries/STM32F10x_StdPeriph_Driver/src/stm32f10x_gpio.o
 .text.GPIO_AFIODeInit
                0x00000000       0x20 build/bsp/Libraries/STM32F10x_StdPeriph_Driver/src/stm32f10x_gpio.o
 .text.GPIO_StructInit
                0x00000000       0x2c build/bsp/Libraries/STM32F10x_StdPeriph_Driver/src/stm32f10x_gpio.o
 .text.GPIO_ReadInputDataBit
                0x00000000      0x12c build/bsp/Libraries/STM32F10x_StdPeriph_Driver/src/stm32f10x_gpio.o
 .text.GPIO_ReadInputData
                0x00000000       0x8c build/bsp/Libraries/STM32F10x_StdPeriph_Driver/src/stm32f10x_gpio.o
 .text.GPIO_ReadOutputDataBit
                0x00000000      0x12c build/bsp/Libraries/STM32F10x_StdPeriph_Driver/src/stm32f10x_gpio.o
 .text.GPIO_ReadOutputData
                0x00000000       0x8c build/bsp/Libraries/STM32F10x_StdPeriph_Driver/src/stm32f10x_gpio.o
 .text.GPIO_WriteBit
                0x00000000      0x13c build/bsp/Libraries/STM32F10x_StdPeriph_Driver/src/stm32f10x_gpio.o
 .text.GPIO_Write
                0x00000000       0x8c build/bsp/Libraries/STM32F10x_StdPeriph_Driver/src/stm32f10x_gpio.o
 .text.GPIO_PinLockConfig
                0x00000000       0xc8 build/bsp/Libraries/STM32F10x_StdPeriph_Driver/src/stm32f10x_gpio.o
 .text.GPIO_EventOutputConfig
                0x00000000       0xf0 build/bsp/Libraries/STM32F10x_StdPeriph_Driver/src/stm32f10x_gpio.o
 .text.GPIO_EventOutputCmd
                0x00000000       0x3c build/bsp/Libraries/STM32F10x_StdPeriph_Driver/src/stm32f10x_gpio.o
 .text.GPIO_PinRemapConfig
                0x00000000      0x3a0 build/bsp/Libraries/STM32F10x_StdPeriph_Driver/src/stm32f10x_gpio.o
 .text.GPIO_EXTILineConfig
                0x00000000      0x158 build/bsp/Libraries/STM32F10x_StdPeriph_Driver/src/stm32f10x_gpio.o
 .text.GPIO_ETH_MediaInterfaceConfig
                0x00000000       0x38 build/bsp/Libraries/STM32F10x_StdPeriph_Driver/src/stm32f10x_gpio.o
 .text          0x00000000        0x0 build/bsp/Libraries/STM32F10x_StdPeriph_Driver/src/stm32f10x_usart.o
 .data          0x00000000        0x0 build/bsp/Libraries/STM32F10x_StdPeriph_Driver/src/stm32f10x_usart.o
 .bss           0x00000000        0x0 build/bsp/Libraries/STM32F10x_StdPeriph_Driver/src/stm32f10x_usart.o
 .text.USART_DeInit
                0x00000000      0x12c build/bsp/Libraries/STM32F10x_StdPeriph_Driver/src/stm32f10x_usart.o
 .text.USART_StructInit
                0x00000000       0x44 build/bsp/Libraries/STM32F10x_StdPeriph_Driver/src/stm32f10x_usart.o
 .text.USART_ClockStructInit
                0x00000000       0x34 build/bsp/Libraries/STM32F10x_StdPeriph_Driver/src/stm32f10x_usart.o
 .text.USART_DMACmd
                0x00000000       0xdc build/bsp/Libraries/STM32F10x_StdPeriph_Driver/src/stm32f10x_usart.o
 .text.USART_SetAddress
                0x00000000       0xa4 build/bsp/Libraries/STM32F10x_StdPeriph_Driver/src/stm32f10x_usart.o
 .text.USART_WakeUpConfig
                0x00000000       0xa8 build/bsp/Libraries/STM32F10x_StdPeriph_Driver/src/stm32f10x_usart.o
 .text.USART_ReceiverWakeUpCmd
                0x00000000       0xb0 build/bsp/Libraries/STM32F10x_StdPeriph_Driver/src/stm32f10x_usart.o
 .text.USART_LINBreakDetectLengthConfig
                0x00000000       0xa8 build/bsp/Libraries/STM32F10x_StdPeriph_Driver/src/stm32f10x_usart.o
 .text.USART_LINCmd
                0x00000000       0xb0 build/bsp/Libraries/STM32F10x_StdPeriph_Driver/src/stm32f10x_usart.o
 .text.USART_SendData
                0x00000000       0x94 build/bsp/Libraries/STM32F10x_StdPeriph_Driver/src/stm32f10x_usart.o
 .text.USART_ReceiveData
                0x00000000       0x78 build/bsp/Libraries/STM32F10x_StdPeriph_Driver/src/stm32f10x_usart.o
 .text.USART_SendBreak
                0x00000000       0x78 build/bsp/Libraries/STM32F10x_StdPeriph_Driver/src/stm32f10x_usart.o
 .text.USART_SetGuardTime
                0x00000000       0x74 build/bsp/Libraries/STM32F10x_StdPeriph_Driver/src/stm32f10x_usart.o
 .text.USART_SetPrescaler
                0x00000000       0x8c build/bsp/Libraries/STM32F10x_StdPeriph_Driver/src/stm32f10x_usart.o
 .text.USART_SmartCardCmd
                0x00000000       0x94 build/bsp/Libraries/STM32F10x_StdPeriph_Driver/src/stm32f10x_usart.o
 .text.USART_SmartCardNACKCmd
                0x00000000       0x94 build/bsp/Libraries/STM32F10x_StdPeriph_Driver/src/stm32f10x_usart.o
 .text.USART_HalfDuplexCmd
                0x00000000       0xb0 build/bsp/Libraries/STM32F10x_StdPeriph_Driver/src/stm32f10x_usart.o
 .text.USART_OverSampling8Cmd
                0x00000000       0xb8 build/bsp/Libraries/STM32F10x_StdPeriph_Driver/src/stm32f10x_usart.o
 .text.USART_OneBitMethodCmd
                0x00000000       0xb0 build/bsp/Libraries/STM32F10x_StdPeriph_Driver/src/stm32f10x_usart.o
 .text.USART_IrDAConfig
                0x00000000       0xa8 build/bsp/Libraries/STM32F10x_StdPeriph_Driver/src/stm32f10x_usart.o
 .text.USART_IrDACmd
                0x00000000       0xb0 build/bsp/Libraries/STM32F10x_StdPeriph_Driver/src/stm32f10x_usart.o
 .text.USART_GetFlagStatus
                0x00000000      0x124 build/bsp/Libraries/STM32F10x_StdPeriph_Driver/src/stm32f10x_usart.o
 .text.USART_ClearFlag
                0x00000000       0xdc build/bsp/Libraries/STM32F10x_StdPeriph_Driver/src/stm32f10x_usart.o
 .text          0x00000000        0x0 build/bsp/Libraries/STM32F10x_StdPeriph_Driver/src/stm32f10x_dbgmcu.o
 .data          0x00000000        0x0 build/bsp/Libraries/STM32F10x_StdPeriph_Driver/src/stm32f10x_dbgmcu.o
 .bss           0x00000000        0x0 build/bsp/Libraries/STM32F10x_StdPeriph_Driver/src/stm32f10x_dbgmcu.o
 .text.DBGMCU_GetREVID
                0x00000000       0x1c build/bsp/Libraries/STM32F10x_StdPeriph_Driver/src/stm32f10x_dbgmcu.o
 .text.DBGMCU_GetDEVID
                0x00000000       0x20 build/bsp/Libraries/STM32F10x_StdPeriph_Driver/src/stm32f10x_dbgmcu.o
 .rodata        0x00000000       0x3c build/bsp/Libraries/STM32F10x_StdPeriph_Driver/src/stm32f10x_dbgmcu.o
 .text.DBGMCU_Config
                0x00000000       0x94 build/bsp/Libraries/STM32F10x_StdPeriph_Driver/src/stm32f10x_dbgmcu.o
 .debug_info    0x00000000      0x178 build/bsp/Libraries/STM32F10x_StdPeriph_Driver/src/stm32f10x_dbgmcu.o
 .debug_abbrev  0x00000000       0xdc build/bsp/Libraries/STM32F10x_StdPeriph_Driver/src/stm32f10x_dbgmcu.o
 .debug_loc     0x00000000       0x90 build/bsp/Libraries/STM32F10x_StdPeriph_Driver/src/stm32f10x_dbgmcu.o
 .debug_aranges
                0x00000000       0x30 build/bsp/Libraries/STM32F10x_StdPeriph_Driver/src/stm32f10x_dbgmcu.o
 .debug_ranges  0x00000000       0x20 build/bsp/Libraries/STM32F10x_StdPeriph_Driver/src/stm32f10x_dbgmcu.o
 .debug_line    0x00000000      0x196 build/bsp/Libraries/STM32F10x_StdPeriph_Driver/src/stm32f10x_dbgmcu.o
 .debug_str     0x00000000      0x1b0 build/bsp/Libraries/STM32F10x_StdPeriph_Driver/src/stm32f10x_dbgmcu.o
 .comment       0x00000000       0x31 build/bsp/Libraries/STM32F10x_StdPeriph_Driver/src/stm32f10x_dbgmcu.o
 .ARM.attributes
                0x00000000       0x33 build/bsp/Libraries/STM32F10x_StdPeriph_Driver/src/stm32f10x_dbgmcu.o
 .debug_frame   0x00000000       0x60 build/bsp/Libraries/STM32F10x_StdPeriph_Driver/src/stm32f10x_dbgmcu.o
 .text          0x00000000        0x0 build/bsp/Libraries/STM32F10x_StdPeriph_Driver/src/stm32f10x_dma.o
 .data          0x00000000        0x0 build/bsp/Libraries/STM32F10x_StdPeriph_Driver/src/stm32f10x_dma.o
 .bss           0x00000000        0x0 build/bsp/Libraries/STM32F10x_StdPeriph_Driver/src/stm32f10x_dma.o
 .text.DMA_DeInit
                0x00000000      0x2d4 build/bsp/Libraries/STM32F10x_StdPeriph_Driver/src/stm32f10x_dma.o
 .text.DMA_Init
                0x00000000      0x288 build/bsp/Libraries/STM32F10x_StdPeriph_Driver/src/stm32f10x_dma.o
 .text.DMA_StructInit
                0x00000000       0x6c build/bsp/Libraries/STM32F10x_StdPeriph_Driver/src/stm32f10x_dma.o
 .text.DMA_ITConfig
                0x00000000      0x130 build/bsp/Libraries/STM32F10x_StdPeriph_Driver/src/stm32f10x_dma.o
 .text.DMA_SetCurrDataCounter
                0x00000000       0xd4 build/bsp/Libraries/STM32F10x_StdPeriph_Driver/src/stm32f10x_dma.o
 .text.DMA_GetCurrDataCounter
                0x00000000       0xd0 build/bsp/Libraries/STM32F10x_StdPeriph_Driver/src/stm32f10x_dma.o
 .text.DMA_GetFlagStatus
                0x00000000      0x28c build/bsp/Libraries/STM32F10x_StdPeriph_Driver/src/stm32f10x_dma.o
 .text.DMA_ClearFlag
                0x00000000       0x64 build/bsp/Libraries/STM32F10x_StdPeriph_Driver/src/stm32f10x_dma.o
 .text.DMA_GetITStatus
                0x00000000      0x28c build/bsp/Libraries/STM32F10x_StdPeriph_Driver/src/stm32f10x_dma.o
 .text.DMA_ClearITPendingBit
                0x00000000       0x64 build/bsp/Libraries/STM32F10x_StdPeriph_Driver/src/stm32f10x_dma.o
 .text          0x00000000        0x0 build/bsp/Libraries/STM32F10x_StdPeriph_Driver/src/stm32f10x_can.o
 .data          0x00000000        0x0 build/bsp/Libraries/STM32F10x_StdPeriph_Driver/src/stm32f10x_can.o
 .bss           0x00000000        0x0 build/bsp/Libraries/STM32F10x_StdPeriph_Driver/src/stm32f10x_can.o
 .rodata        0x00000000       0x3c build/bsp/Libraries/STM32F10x_StdPeriph_Driver/src/stm32f10x_can.o
 .text.CAN_DeInit
                0x00000000       0x7c build/bsp/Libraries/STM32F10x_StdPeriph_Driver/src/stm32f10x_can.o
 .text.CAN_Init
                0x00000000      0x35c build/bsp/Libraries/STM32F10x_StdPeriph_Driver/src/stm32f10x_can.o
 .text.CAN_FilterInit
                0x00000000      0x2a8 build/bsp/Libraries/STM32F10x_StdPeriph_Driver/src/stm32f10x_can.o
 .text.CAN_StructInit
                0x00000000       0x6c build/bsp/Libraries/STM32F10x_StdPeriph_Driver/src/stm32f10x_can.o
 .text.CAN_SlaveStartBank
                0x00000000       0xa8 build/bsp/Libraries/STM32F10x_StdPeriph_Driver/src/stm32f10x_can.o
 .text.CAN_DBGFreeze
                0x00000000       0x7c build/bsp/Libraries/STM32F10x_StdPeriph_Driver/src/stm32f10x_can.o
 .text.CAN_TTComModeCmd
                0x00000000       0xdc build/bsp/Libraries/STM32F10x_StdPeriph_Driver/src/stm32f10x_can.o
 .text.CAN_Transmit
                0x00000000      0x298 build/bsp/Libraries/STM32F10x_StdPeriph_Driver/src/stm32f10x_can.o
 .text.CAN_TransmitStatus
                0x00000000      0x14c build/bsp/Libraries/STM32F10x_StdPeriph_Driver/src/stm32f10x_can.o
 .text.CAN_CancelTransmit
                0x00000000       0x90 build/bsp/Libraries/STM32F10x_StdPeriph_Driver/src/stm32f10x_can.o
 .text.CAN_Receive
                0x00000000      0x1f0 build/bsp/Libraries/STM32F10x_StdPeriph_Driver/src/stm32f10x_can.o
 .text.CAN_FIFORelease
                0x00000000       0x7c build/bsp/Libraries/STM32F10x_StdPeriph_Driver/src/stm32f10x_can.o
 .text.CAN_MessagePending
                0x00000000       0x94 build/bsp/Libraries/STM32F10x_StdPeriph_Driver/src/stm32f10x_can.o
 .text.CAN_OperatingModeRequest
                0x00000000      0x160 build/bsp/Libraries/STM32F10x_StdPeriph_Driver/src/stm32f10x_can.o
 .text.CAN_Sleep
                0x00000000       0x68 build/bsp/Libraries/STM32F10x_StdPeriph_Driver/src/stm32f10x_can.o
 .text.CAN_WakeUp
                0x00000000       0x88 build/bsp/Libraries/STM32F10x_StdPeriph_Driver/src/stm32f10x_can.o
 .text.CAN_GetLastErrorCode
                0x00000000       0x54 build/bsp/Libraries/STM32F10x_StdPeriph_Driver/src/stm32f10x_can.o
 .text.CAN_GetReceiveErrorCounter
                0x00000000       0x50 build/bsp/Libraries/STM32F10x_StdPeriph_Driver/src/stm32f10x_can.o
 .text.CAN_GetLSBTransmitErrorCounter
                0x00000000       0x54 build/bsp/Libraries/STM32F10x_StdPeriph_Driver/src/stm32f10x_can.o
 .text.CAN_ITConfig
                0x00000000       0xf4 build/bsp/Libraries/STM32F10x_StdPeriph_Driver/src/stm32f10x_can.o
 .text.CAN_GetFlagStatus
                0x00000000      0x204 build/bsp/Libraries/STM32F10x_StdPeriph_Driver/src/stm32f10x_can.o
 .text.CAN_ClearFlag
                0x00000000      0x140 build/bsp/Libraries/STM32F10x_StdPeriph_Driver/src/stm32f10x_can.o
 .text.CAN_GetITStatus
                0x00000000      0x258 build/bsp/Libraries/STM32F10x_StdPeriph_Driver/src/stm32f10x_can.o
 .text.CAN_ClearITPendingBit
                0x00000000      0x18c build/bsp/Libraries/STM32F10x_StdPeriph_Driver/src/stm32f10x_can.o
 .text.CheckITStatus
                0x00000000       0x38 build/bsp/Libraries/STM32F10x_StdPeriph_Driver/src/stm32f10x_can.o
 .debug_info    0x00000000      0xc75 build/bsp/Libraries/STM32F10x_StdPeriph_Driver/src/stm32f10x_can.o
 .debug_abbrev  0x00000000      0x1ae build/bsp/Libraries/STM32F10x_StdPeriph_Driver/src/stm32f10x_can.o
 .debug_loc     0x00000000      0x578 build/bsp/Libraries/STM32F10x_StdPeriph_Driver/src/stm32f10x_can.o
 .debug_aranges
                0x00000000       0xe0 build/bsp/Libraries/STM32F10x_StdPeriph_Driver/src/stm32f10x_can.o
 .debug_ranges  0x00000000       0xd0 build/bsp/Libraries/STM32F10x_StdPeriph_Driver/src/stm32f10x_can.o
 .debug_line    0x00000000      0x8d3 build/bsp/Libraries/STM32F10x_StdPeriph_Driver/src/stm32f10x_can.o
 .debug_str     0x00000000      0x6db build/bsp/Libraries/STM32F10x_StdPeriph_Driver/src/stm32f10x_can.o
 .comment       0x00000000       0x31 build/bsp/Libraries/STM32F10x_StdPeriph_Driver/src/stm32f10x_can.o
 .ARM.attributes
                0x00000000       0x33 build/bsp/Libraries/STM32F10x_StdPeriph_Driver/src/stm32f10x_can.o
 .debug_frame   0x00000000      0x328 build/bsp/Libraries/STM32F10x_StdPeriph_Driver/src/stm32f10x_can.o
 .text          0x00000000        0x0 build/bsp/Libraries/STM32F10x_StdPeriph_Driver/src/stm32f10x_cec.o
 .data          0x00000000        0x0 build/bsp/Libraries/STM32F10x_StdPeriph_Driver/src/stm32f10x_cec.o
 .bss           0x00000000        0x0 build/bsp/Libraries/STM32F10x_StdPeriph_Driver/src/stm32f10x_cec.o
 .text.CEC_DeInit
                0x00000000       0x20 build/bsp/Libraries/STM32F10x_StdPeriph_Driver/src/stm32f10x_cec.o
 .rodata        0x00000000       0x3c build/bsp/Libraries/STM32F10x_StdPeriph_Driver/src/stm32f10x_cec.o
 .text.CEC_Init
                0x00000000       0x88 build/bsp/Libraries/STM32F10x_StdPeriph_Driver/src/stm32f10x_cec.o
 .text.CEC_Cmd  0x00000000       0x58 build/bsp/Libraries/STM32F10x_StdPeriph_Driver/src/stm32f10x_cec.o
 .text.CEC_ITConfig
                0x00000000       0x3c build/bsp/Libraries/STM32F10x_StdPeriph_Driver/src/stm32f10x_cec.o
 .text.CEC_OwnAddressConfig
                0x00000000       0x34 build/bsp/Libraries/STM32F10x_StdPeriph_Driver/src/stm32f10x_cec.o
 .text.CEC_SetPrescaler
                0x00000000       0x38 build/bsp/Libraries/STM32F10x_StdPeriph_Driver/src/stm32f10x_cec.o
 .text.CEC_SendDataByte
                0x00000000       0x20 build/bsp/Libraries/STM32F10x_StdPeriph_Driver/src/stm32f10x_cec.o
 .text.CEC_ReceiveDataByte
                0x00000000       0x18 build/bsp/Libraries/STM32F10x_StdPeriph_Driver/src/stm32f10x_cec.o
 .text.CEC_StartOfMessage
                0x00000000       0x18 build/bsp/Libraries/STM32F10x_StdPeriph_Driver/src/stm32f10x_cec.o
 .text.CEC_EndOfMessageCmd
                0x00000000       0x3c build/bsp/Libraries/STM32F10x_StdPeriph_Driver/src/stm32f10x_cec.o
 .text.CEC_GetFlagStatus
                0x00000000      0x10c build/bsp/Libraries/STM32F10x_StdPeriph_Driver/src/stm32f10x_cec.o
 .text.CEC_ClearFlag
                0x00000000       0x6c build/bsp/Libraries/STM32F10x_StdPeriph_Driver/src/stm32f10x_cec.o
 .text.CEC_GetITStatus
                0x00000000       0x80 build/bsp/Libraries/STM32F10x_StdPeriph_Driver/src/stm32f10x_cec.o
 .text.CEC_ClearITPendingBit
                0x00000000       0x74 build/bsp/Libraries/STM32F10x_StdPeriph_Driver/src/stm32f10x_cec.o
 .debug_info    0x00000000      0x45a build/bsp/Libraries/STM32F10x_StdPeriph_Driver/src/stm32f10x_cec.o
 .debug_abbrev  0x00000000      0x18b build/bsp/Libraries/STM32F10x_StdPeriph_Driver/src/stm32f10x_cec.o
 .debug_loc     0x00000000      0x2ec build/bsp/Libraries/STM32F10x_StdPeriph_Driver/src/stm32f10x_cec.o
 .debug_aranges
                0x00000000       0x88 build/bsp/Libraries/STM32F10x_StdPeriph_Driver/src/stm32f10x_cec.o
 .debug_ranges  0x00000000       0x78 build/bsp/Libraries/STM32F10x_StdPeriph_Driver/src/stm32f10x_cec.o
 .debug_line    0x00000000      0x37b build/bsp/Libraries/STM32F10x_StdPeriph_Driver/src/stm32f10x_cec.o
 .debug_str     0x00000000      0x323 build/bsp/Libraries/STM32F10x_StdPeriph_Driver/src/stm32f10x_cec.o
 .comment       0x00000000       0x31 build/bsp/Libraries/STM32F10x_StdPeriph_Driver/src/stm32f10x_cec.o
 .ARM.attributes
                0x00000000       0x33 build/bsp/Libraries/STM32F10x_StdPeriph_Driver/src/stm32f10x_cec.o
 .debug_frame   0x00000000      0x1b8 build/bsp/Libraries/STM32F10x_StdPeriph_Driver/src/stm32f10x_cec.o
 .text          0x00000000        0x0 build/bsp/Libraries/STM32F10x_StdPeriph_Driver/src/misc.o
 .data          0x00000000        0x0 build/bsp/Libraries/STM32F10x_StdPeriph_Driver/src/misc.o
 .bss           0x00000000        0x0 build/bsp/Libraries/STM32F10x_StdPeriph_Driver/src/misc.o
 .text.NVIC_PriorityGroupConfig
                0x00000000       0x5c build/bsp/Libraries/STM32F10x_StdPeriph_Driver/src/misc.o
 .text.NVIC_SystemLPConfig
                0x00000000       0x90 build/bsp/Libraries/STM32F10x_StdPeriph_Driver/src/misc.o
 .text.SysTick_CLKSourceConfig
                0x00000000       0x68 build/bsp/Libraries/STM32F10x_StdPeriph_Driver/src/misc.o
 .text          0x00000000       0x14 build/bsp/Libraries/CMSIS/CM3/DeviceSupport/ST/STM32F10x/startup/gcc_ride7/startup_stm32f10x_hd.o
 .data          0x00000000        0x0 build/bsp/Libraries/CMSIS/CM3/DeviceSupport/ST/STM32F10x/startup/gcc_ride7/startup_stm32f10x_hd.o
 .bss           0x00000000        0x0 build/bsp/Libraries/CMSIS/CM3/DeviceSupport/ST/STM32F10x/startup/gcc_ride7/startup_stm32f10x_hd.o
 .text          0x00000000      0x370 /opt/arm-2012.03/bin/../lib/gcc/arm-none-eabi/4.6.3/thumb2/libgcc.a(_arm_addsubdf3.o)
 .data          0x00000000        0x0 /opt/arm-2012.03/bin/../lib/gcc/arm-none-eabi/4.6.3/thumb2/libgcc.a(_arm_addsubdf3.o)
 .bss           0x00000000        0x0 /opt/arm-2012.03/bin/../lib/gcc/arm-none-eabi/4.6.3/thumb2/libgcc.a(_arm_addsubdf3.o)
 .ARM.attributes
                0x00000000       0x1b /opt/arm-2012.03/bin/../lib/gcc/arm-none-eabi/4.6.3/thumb2/libgcc.a(_arm_addsubdf3.o)
 .text          0x00000000      0x424 /opt/arm-2012.03/bin/../lib/gcc/arm-none-eabi/4.6.3/thumb2/libgcc.a(_arm_muldivdf3.o)
 .data          0x00000000        0x0 /opt/arm-2012.03/bin/../lib/gcc/arm-none-eabi/4.6.3/thumb2/libgcc.a(_arm_muldivdf3.o)
 .bss           0x00000000        0x0 /opt/arm-2012.03/bin/../lib/gcc/arm-none-eabi/4.6.3/thumb2/libgcc.a(_arm_muldivdf3.o)
 .ARM.attributes
                0x00000000       0x1b /opt/arm-2012.03/bin/../lib/gcc/arm-none-eabi/4.6.3/thumb2/libgcc.a(_arm_muldivdf3.o)
 .text          0x00000000       0x50 /opt/arm-2012.03/bin/../lib/gcc/arm-none-eabi/4.6.3/thumb2/libgcc.a(_arm_fixdfsi.o)
 .data          0x00000000        0x0 /opt/arm-2012.03/bin/../lib/gcc/arm-none-eabi/4.6.3/thumb2/libgcc.a(_arm_fixdfsi.o)
 .bss           0x00000000        0x0 /opt/arm-2012.03/bin/../lib/gcc/arm-none-eabi/4.6.3/thumb2/libgcc.a(_arm_fixdfsi.o)
 .ARM.attributes
                0x00000000       0x1b /opt/arm-2012.03/bin/../lib/gcc/arm-none-eabi/4.6.3/thumb2/libgcc.a(_arm_fixdfsi.o)
 .text          0x00000000        0x0 /opt/arm-2012.03/bin/../lib/gcc/arm-none-eabi/4.6.3/thumb2/crtend.o
 .data          0x00000000        0x0 /opt/arm-2012.03/bin/../lib/gcc/arm-none-eabi/4.6.3/thumb2/crtend.o
 .bss           0x00000000        0x0 /opt/arm-2012.03/bin/../lib/gcc/arm-none-eabi/4.6.3/thumb2/crtend.o
 .eh_frame      0x00000000        0x4 /opt/arm-2012.03/bin/../lib/gcc/arm-none-eabi/4.6.3/thumb2/crtend.o
 .jcr           0x00000000        0x4 /opt/arm-2012.03/bin/../lib/gcc/arm-none-eabi/4.6.3/thumb2/crtend.o
 .ARM.attributes
                0x00000000       0x2b /opt/arm-2012.03/bin/../lib/gcc/arm-none-eabi/4.6.3/thumb2/crtend.o
 .text          0x00000000        0x0 /opt/arm-2012.03/bin/../lib/gcc/arm-none-eabi/4.6.3/thumb2/crtn.o
 .data          0x00000000        0x0 /opt/arm-2012.03/bin/../lib/gcc/arm-none-eabi/4.6.3/thumb2/crtn.o
 .bss           0x00000000        0x0 /opt/arm-2012.03/bin/../lib/gcc/arm-none-eabi/4.6.3/thumb2/crtn.o
 .init          0x00000000        0x8 /opt/arm-2012.03/bin/../lib/gcc/arm-none-eabi/4.6.3/thumb2/crtn.o
 .fini          0x00000000        0x8 /opt/arm-2012.03/bin/../lib/gcc/arm-none-eabi/4.6.3/thumb2/crtn.o
 .ARM.attributes
                0x00000000       0x1b /opt/arm-2012.03/bin/../lib/gcc/arm-none-eabi/4.6.3/thumb2/crtn.o

Memory Configuration

Name             Origin             Length             Attributes
CODE             0x08000000         0x00080000         xr
DATA             0x20000000         0x00010000         rw
*default*        0x00000000         0xffffffff

Linker script and memory map

LOAD /opt/arm-2012.03/bin/../lib/gcc/arm-none-eabi/4.6.3/thumb2/crti.o
LOAD /opt/arm-2012.03/bin/../lib/gcc/arm-none-eabi/4.6.3/thumb2/crtbegin.o
LOAD build/bsp/application.o
LOAD build/bsp/startup.o
LOAD build/bsp/board.o
LOAD build/bsp/stm32f10x_it.o
LOAD build/bsp/rtc.o
LOAD build/bsp/usart.o
LOAD build/bsp/serial.o
LOAD build/bsp/led.o
LOAD build/src/clock.o
LOAD build/src/device.o
LOAD build/src/idle.o
LOAD build/src/ipc.o
LOAD build/src/irq.o
LOAD build/src/kservice.o
LOAD build/src/mem.o
LOAD build/src/mempool.o
LOAD build/src/object.o
LOAD build/src/scheduler.o
LOAD build/src/thread.o
LOAD build/src/timer.o
LOAD build/libcpu/arm/cortex-m3/cpuport.o
LOAD build/libcpu/arm/cortex-m3/context_gcc.o
LOAD build/libcpu/arm/common/backtrace.o
LOAD build/libcpu/arm/common/div0.o
LOAD build/libcpu/arm/common/showmem.o
LOAD build/components/finsh/libfinsh.a
LOAD build/components/libc/minilibc/ctype.o
LOAD build/components/libc/minilibc/math.o
LOAD build/components/libc/minilibc/qsort.o
LOAD build/components/libc/minilibc/rand.o
LOAD build/components/libc/minilibc/stdlib.o
LOAD build/components/libc/minilibc/string.o
LOAD build/components/libc/minilibc/time.o
LOAD build/bsp/Libraries/CMSIS/CM3/CoreSupport/core_cm3.o
LOAD build/bsp/Libraries/CMSIS/CM3/DeviceSupport/ST/STM32F10x/system_stm32f10x.o
LOAD build/bsp/Libraries/STM32F10x_StdPeriph_Driver/src/stm32f10x_crc.o
LOAD build/bsp/Libraries/STM32F10x_StdPeriph_Driver/src/stm32f10x_rcc.o
LOAD build/bsp/Libraries/STM32F10x_StdPeriph_Driver/src/stm32f10x_wwdg.o
LOAD build/bsp/Libraries/STM32F10x_StdPeriph_Driver/src/stm32f10x_pwr.o
LOAD build/bsp/Libraries/STM32F10x_StdPeriph_Driver/src/stm32f10x_exti.o
LOAD build/bsp/Libraries/STM32F10x_StdPeriph_Driver/src/stm32f10x_bkp.o
LOAD build/bsp/Libraries/STM32F10x_StdPeriph_Driver/src/stm32f10x_i2c.o
LOAD build/bsp/Libraries/STM32F10x_StdPeriph_Driver/src/stm32f10x_adc.o
LOAD build/bsp/Libraries/STM32F10x_StdPeriph_Driver/src/stm32f10x_dac.o
LOAD build/bsp/Libraries/STM32F10x_StdPeriph_Driver/src/stm32f10x_rtc.o
LOAD build/bsp/Libraries/STM32F10x_StdPeriph_Driver/src/stm32f10x_fsmc.o
LOAD build/bsp/Libraries/STM32F10x_StdPeriph_Driver/src/stm32f10x_tim.o
LOAD build/bsp/Libraries/STM32F10x_StdPeriph_Driver/src/stm32f10x_iwdg.o
LOAD build/bsp/Libraries/STM32F10x_StdPeriph_Driver/src/stm32f10x_spi.o
LOAD build/bsp/Libraries/STM32F10x_StdPeriph_Driver/src/stm32f10x_flash.o
LOAD build/bsp/Libraries/STM32F10x_StdPeriph_Driver/src/stm32f10x_sdio.o
LOAD build/bsp/Libraries/STM32F10x_StdPeriph_Driver/src/stm32f10x_gpio.o
LOAD build/bsp/Libraries/STM32F10x_StdPeriph_Driver/src/stm32f10x_usart.o
LOAD build/bsp/Libraries/STM32F10x_StdPeriph_Driver/src/stm32f10x_dbgmcu.o
LOAD build/bsp/Libraries/STM32F10x_StdPeriph_Driver/src/stm32f10x_dma.o
LOAD build/bsp/Libraries/STM32F10x_StdPeriph_Driver/src/stm32f10x_can.o
LOAD build/bsp/Libraries/STM32F10x_StdPeriph_Driver/src/stm32f10x_cec.o
LOAD build/bsp/Libraries/STM32F10x_StdPeriph_Driver/src/misc.o
LOAD build/bsp/Libraries/CMSIS/CM3/DeviceSupport/ST/STM32F10x/startup/gcc_ride7/startup_stm32f10x_hd.o
START GROUP
LOAD /opt/arm-2012.03/bin/../lib/gcc/arm-none-eabi/4.6.3/thumb2/libgcc.a
LOAD /opt/arm-2012.03/bin/../lib/gcc/arm-none-eabi/4.6.3/../../../../arm-none-eabi/lib/thumb2/libc.a
END GROUP
LOAD /opt/arm-2012.03/bin/../lib/gcc/arm-none-eabi/4.6.3/thumb2/crtend.o
LOAD /opt/arm-2012.03/bin/../lib/gcc/arm-none-eabi/4.6.3/thumb2/crtn.o
                0x00000100                _system_stack_size = 0x100

.text           0x08000000    0x11028
                0x08000000                . = ALIGN (0x4)
 *(.isr_vector)
 .isr_vector    0x08000000      0x1e4 build/bsp/Libraries/CMSIS/CM3/DeviceSupport/ST/STM32F10x/startup/gcc_ride7/startup_stm32f10x_hd.o
                0x08000000                g_pfnVectors
                0x080001e4                . = ALIGN (0x4)
 *(.text)
 .text          0x080001e4       0xd0 build/libcpu/arm/cortex-m3/context_gcc.o
                0x080001e4                rt_hw_interrupt_disable
                0x080001ec                rt_hw_interrupt_enable
                0x080001f2                rt_hw_context_switch_interrupt
                0x080001f2                rt_hw_context_switch
                0x08000212                PendSV_Handler
                0x0800024e                rt_hw_context_switch_to
                0x08000278                rt_hw_interrupt_thread_switch
                0x0800027c                HardFault_Handler
                0x08000290                rt_hw_interrupt_check
 *(.text.*)
 .text.led_thread_entry
                0x080002b4       0x3c build/bsp/application.o
 .text.rt_init_thread_entry
                0x080002f0       0x14 build/bsp/application.o
                0x080002f0                rt_init_thread_entry
 .text.rt_application_init
                0x08000304       0x9c build/bsp/application.o
                0x08000304                rt_application_init
 .text.assert_failed
                0x080003a0       0x34 build/bsp/startup.o
                0x080003a0                assert_failed
 .text.rtthread_startup
                0x080003d4       0x5c build/bsp/startup.o
                0x080003d4                rtthread_startup
 .text.main     0x08000430       0x14 build/bsp/startup.o
                0x08000430                main
 .text.NVIC_SetPriority
                0x08000444       0x5c build/bsp/board.o
 .text.SysTick_Config
                0x080004a0       0x64 build/bsp/board.o
 .text.NVIC_Configuration
                0x08000504       0x14 build/bsp/board.o
                0x08000504                NVIC_Configuration
 .text.rt_hw_timer_handler
                0x08000518       0x14 build/bsp/board.o
                0x08000518                rt_hw_timer_handler
 .text.rt_hw_board_init
                0x0800052c       0x3c build/bsp/board.o
                0x0800052c                rt_hw_board_init
 .text.NMI_Handler
                0x08000568        0xc build/bsp/stm32f10x_it.o
                0x08000568                NMI_Handler
 .text.MemManage_Handler
                0x08000574        0x8 build/bsp/stm32f10x_it.o
                0x08000574                MemManage_Handler
 .text.BusFault_Handler
                0x0800057c        0x8 build/bsp/stm32f10x_it.o
                0x0800057c                BusFault_Handler
 .text.UsageFault_Handler
                0x08000584        0x8 build/bsp/stm32f10x_it.o
                0x08000584                UsageFault_Handler
 .text.SVC_Handler
                0x0800058c        0xc build/bsp/stm32f10x_it.o
                0x0800058c                SVC_Handler
 .text.DebugMon_Handler
                0x08000598        0xc build/bsp/stm32f10x_it.o
                0x08000598                DebugMon_Handler
 .text.SysTick_Handler
                0x080005a4        0xc build/bsp/stm32f10x_it.o
                0x080005a4                SysTick_Handler
 .text.DMA1_Channel2_IRQHandler
                0x080005b0        0xc build/bsp/stm32f10x_it.o
                0x080005b0                DMA1_Channel2_IRQHandler
 .text.USART1_IRQHandler
                0x080005bc       0x1c build/bsp/stm32f10x_it.o
                0x080005bc                USART1_IRQHandler
 .text.USART2_IRQHandler
                0x080005d8        0xc build/bsp/stm32f10x_it.o
                0x080005d8                USART2_IRQHandler
 .text.USART3_IRQHandler
                0x080005e4        0xc build/bsp/stm32f10x_it.o
                0x080005e4                USART3_IRQHandler
 .text.rt_rtc_open
                0x080005f0       0x1c build/bsp/rtc.o
 .text.rt_rtc_read
                0x0800060c       0x20 build/bsp/rtc.o
 .text.rt_rtc_control
                0x0800062c       0xa4 build/bsp/rtc.o
 .text.RTC_Configuration
                0x080006d0       0x88 build/bsp/rtc.o
                0x080006d0                RTC_Configuration
 .text.rt_hw_rtc_init
                0x08000758       0xe4 build/bsp/rtc.o
                0x08000758                rt_hw_rtc_init
 .text.time     0x0800083c       0x4c build/bsp/rtc.o
                0x0800083c                time
 .text.set_date
                0x08000888       0x88 build/bsp/rtc.o
                0x08000888                set_date
 .text.set_time
                0x08000910       0x78 build/bsp/rtc.o
                0x08000910                set_time
 .text.list_date
                0x08000988       0x34 build/bsp/rtc.o
                0x08000988                list_date
 .text.RCC_Configuration
                0x080009bc       0x20 build/bsp/usart.o
 .text.GPIO_Configuration
                0x080009dc       0x50 build/bsp/usart.o
 .text.NVIC_Configuration
                0x08000a2c       0x30 build/bsp/usart.o
 .text.DMA_Configuration
                0x08000a5c        0xc build/bsp/usart.o
 .text.rt_hw_usart_init
                0x08000a68       0xb0 build/bsp/usart.o
                0x08000a68                rt_hw_usart_init
 .text.rt_serial_init
                0x08000b18       0xf8 build/bsp/serial.o
 .text.rt_serial_open
                0x08000c10       0x1c build/bsp/serial.o
 .text.rt_serial_close
                0x08000c2c       0x18 build/bsp/serial.o
 .text.rt_serial_read
                0x08000c44       0xf4 build/bsp/serial.o
 .text.rt_serial_enable_dma
                0x08000d38       0x68 build/bsp/serial.o
 .text.rt_serial_write
                0x08000da0      0x1b8 build/bsp/serial.o
 .text.rt_serial_control
                0x08000f58       0x9c build/bsp/serial.o
 .text.rt_hw_serial_register
                0x08000ff4      0x10c build/bsp/serial.o
                0x08000ff4                rt_hw_serial_register
 .text.rt_hw_serial_isr
                0x08001100      0x164 build/bsp/serial.o
                0x08001100                rt_hw_serial_isr
 .text.rt_hw_led_init
                0x08001264       0x58 build/bsp/led.o
                0x08001264                rt_hw_led_init
 .text.rt_hw_led_on
                0x080012bc       0x44 build/bsp/led.o
                0x080012bc                rt_hw_led_on
 .text.rt_hw_led_off
                0x08001300       0x44 build/bsp/led.o
                0x08001300                rt_hw_led_off
 .text.led      0x08001344       0x84 build/bsp/led.o
                0x08001344                led
 .text.rt_system_tick_init
                0x080013c8       0x18 build/src/clock.o
                0x080013c8                rt_system_tick_init
 .text.rt_tick_get
                0x080013e0       0x18 build/src/clock.o
                0x080013e0                rt_tick_get
 .text.rt_tick_increase
                0x080013f8       0x50 build/src/clock.o
                0x080013f8                rt_tick_increase
 .text.rt_device_register
                0x08001448       0x3c build/src/device.o
                0x08001448                rt_device_register
 .text.rt_device_init_all
                0x08001484       0x84 build/src/device.o
                0x08001484                rt_device_init_all
 .text.rt_device_find
                0x08001508       0x84 build/src/device.o
                0x08001508                rt_device_find
 .text.rt_device_open
                0x0800158c       0xec build/src/device.o
                0x0800158c                rt_device_open
 .text.rt_device_close
                0x08001678       0x7c build/src/device.o
                0x08001678                rt_device_close
 .text.rt_device_read
                0x080016f4       0x74 build/src/device.o
                0x080016f4                rt_device_read
 .text.rt_device_write
                0x08001768       0x74 build/src/device.o
                0x08001768                rt_device_write
 .text.rt_device_control
                0x080017dc       0x6c build/src/device.o
                0x080017dc                rt_device_control
 .text.rt_device_set_rx_indicate
                0x08001848       0x54 build/src/device.o
                0x08001848                rt_device_set_rx_indicate
 .text.rt_list_remove
                0x0800189c       0x34 build/src/idle.o
 .text.rt_list_isempty
                0x080018d0       0x24 build/src/idle.o
 .text.rt_thread_idle_excute
                0x080018f4       0xf0 build/src/idle.o
                0x080018f4                rt_thread_idle_excute
 .text.rt_thread_idle_entry
                0x080019e4       0x28 build/src/idle.o
 .text.rt_thread_idle_init
                0x08001a0c       0x54 build/src/idle.o
                0x08001a0c                rt_thread_idle_init
 .text.rt_list_init
                0x08001a60       0x20 build/src/ipc.o
 .text.rt_list_insert_before
                0x08001a80       0x30 build/src/ipc.o
 .text.rt_list_isempty
                0x08001ab0       0x24 build/src/ipc.o
 .text.rt_ipc_object_init
                0x08001ad4       0x24 build/src/ipc.o
 .text.rt_ipc_list_suspend
                0x08001af8       0x9c build/src/ipc.o
 .text.rt_ipc_list_resume
                0x08001b94       0x28 build/src/ipc.o
 .text.rt_sem_init
                0x08001bbc       0x74 build/src/ipc.o
                0x08001bbc                rt_sem_init
 .text.rt_sem_take
                0x08001c30      0x178 build/src/ipc.o
                0x08001c30                rt_sem_take
 .text.rt_sem_release
                0x08001da8       0x80 build/src/ipc.o
                0x08001da8                rt_sem_release
 .text.rt_interrupt_enter
                0x08001e28       0x38 build/src/irq.o
                0x08001e28                rt_interrupt_enter
 .text.rt_interrupt_leave
                0x08001e60       0x38 build/src/irq.o
                0x08001e60                rt_interrupt_leave
 .text.rt_interrupt_get_nest
                0x08001e98       0x18 build/src/irq.o
                0x08001e98                rt_interrupt_get_nest
 .text.rt_set_errno
                0x08001eb0       0x48 build/src/kservice.o
                0x08001eb0                rt_set_errno
 .text.rt_memset
                0x08001ef8       0xe8 build/src/kservice.o
                0x08001ef8                memset
                0x08001ef8                rt_memset
 .text.rt_memcpy
                0x08001fe0      0x118 build/src/kservice.o
                0x08001fe0                memcpy
                0x08001fe0                rt_memcpy
 .text.rt_strncpy
                0x080020f8       0x84 build/src/kservice.o
                0x080020f8                rt_strncpy
 .text.rt_strncmp
                0x0800217c       0x70 build/src/kservice.o
                0x0800217c                rt_strncmp
 .text.rt_strlen
                0x080021ec       0x30 build/src/kservice.o
                0x080021ec                rt_strlen
                0x080021ec                strlen
 .text.rt_show_version
                0x0800221c       0x50 build/src/kservice.o
                0x0800221c                rt_show_version
 .text.divide   0x0800226c       0x7c build/src/kservice.o
 .text.skip_atoi
                0x080022e8       0x4c build/src/kservice.o
 .text.print_number
                0x08002334      0x1f4 build/src/kservice.o
 .text.vsnprintf
                0x08002528      0x5a4 build/src/kservice.o
 .text.rt_console_set_device
                0x08002acc       0x6c build/src/kservice.o
                0x08002acc                rt_console_set_device
 .text.rt_hw_console_output
                0x08002b38       0x14 build/src/kservice.o
                0x08002b38                rt_hw_console_output
 .text.rt_kprintf
                0x08002b4c       0x70 build/src/kservice.o
                0x08002b4c                rt_kprintf
 .text.plug_holes
                0x08002bbc      0x1a0 build/src/mem.o
 .text.rt_system_heap_init
                0x08002d5c      0x1a0 build/src/mem.o
                0x08002d5c                rt_system_heap_init
 .text.rt_malloc
                0x08002efc      0x40c build/src/mem.o
                0x08002efc                rt_malloc
 .text.rt_free  0x08003308      0x22c build/src/mem.o
                0x08003308                rt_free
 .text.list_mem
                0x08003534       0x50 build/src/mem.o
                0x08003534                list_mem
 .text.rt_list_init
                0x08003584       0x20 build/src/mempool.o
 .text.rt_list_insert_after
                0x080035a4       0x30 build/src/mempool.o
 .text.rt_mp_init
                0x080035d4      0x10c build/src/mempool.o
                0x080035d4                rt_mp_init
 .text.rt_mp_alloc
                0x080036e0      0x170 build/src/mempool.o
                0x080036e0                rt_mp_alloc
 .text.rt_list_insert_after
                0x08003850       0x30 build/src/object.o
 .text.rt_list_remove
                0x08003880       0x34 build/src/object.o
 .text.rt_system_object_init
                0x080038b4        0xc build/src/object.o
                0x080038b4                rt_system_object_init
 .text.rt_object_init
                0x080038c0       0x80 build/src/object.o
                0x080038c0                rt_object_init
 .text.rt_object_detach
                0x08003940       0x78 build/src/object.o
                0x08003940                rt_object_detach
 .text.rt_object_allocate
                0x080039b8       0xf4 build/src/object.o
                0x080039b8                rt_object_allocate
 .text.rt_object_delete
                0x08003aac       0xb8 build/src/object.o
                0x08003aac                rt_object_delete
 .text.rt_object_is_systemobject
                0x08003b64       0x5c build/src/object.o
                0x08003b64                rt_object_is_systemobject
 .text.rt_list_init
                0x08003bc0       0x20 build/src/scheduler.o
 .text.rt_list_insert_before
                0x08003be0       0x30 build/src/scheduler.o
 .text.rt_list_remove
                0x08003c10       0x34 build/src/scheduler.o
 .text.rt_list_isempty
                0x08003c44       0x24 build/src/scheduler.o
 .text._rt_scheduler_stack_check
                0x08003c68       0xb0 build/src/scheduler.o
 .text.rt_system_scheduler_init
                0x08003d18       0x70 build/src/scheduler.o
                0x08003d18                rt_system_scheduler_init
 .text.rt_system_scheduler_start
                0x08003d88       0xdc build/src/scheduler.o
                0x08003d88                rt_system_scheduler_start
 .text.rt_schedule
                0x08003e64      0x184 build/src/scheduler.o
                0x08003e64                rt_schedule
 .text.rt_schedule_insert_thread
                0x08003fe8       0x98 build/src/scheduler.o
                0x08003fe8                rt_schedule_insert_thread
 .text.rt_schedule_remove_thread
                0x08004080       0x9c build/src/scheduler.o
                0x08004080                rt_schedule_remove_thread
 .text.rt_enter_critical
                0x0800411c       0x2c build/src/scheduler.o
                0x0800411c                rt_enter_critical
 .text.rt_exit_critical
                0x08004148       0x58 build/src/scheduler.o
                0x08004148                rt_exit_critical
 .text.rt_list_init
                0x080041a0       0x20 build/src/thread.o
 .text.rt_list_insert_after
                0x080041c0       0x30 build/src/thread.o
 .text.rt_list_insert_before
                0x080041f0       0x30 build/src/thread.o
 .text.rt_list_remove
                0x08004220       0x34 build/src/thread.o
 .text._rt_thread_init
                0x08004254      0x124 build/src/thread.o
 .text.rt_thread_init
                0x08004378       0xac build/src/thread.o
                0x08004378                rt_thread_init
 .text.rt_thread_create
                0x08004424       0x6c build/src/thread.o
                0x08004424                rt_thread_create
 .text.rt_thread_self
                0x08004490       0x18 build/src/thread.o
                0x08004490                rt_thread_self
 .text.rt_thread_startup
                0x080044a8       0xc0 build/src/thread.o
                0x080044a8                rt_thread_startup
 .text.rt_thread_exit
                0x08004568       0x84 build/src/thread.o
 .text.rt_thread_yield
                0x080045ec       0x80 build/src/thread.o
                0x080045ec                rt_thread_yield
 .text.rt_thread_sleep
                0x0800466c       0xa0 build/src/thread.o
                0x0800466c                rt_thread_sleep
 .text.rt_thread_delay
                0x0800470c       0x1c build/src/thread.o
                0x0800470c                rt_thread_delay
 .text.rt_thread_suspend
                0x08004728       0x78 build/src/thread.o
                0x08004728                rt_thread_suspend
 .text.rt_thread_resume
                0x080047a0       0x98 build/src/thread.o
                0x080047a0                rt_thread_resume
 .text.rt_thread_timeout
                0x08004838       0xa0 build/src/thread.o
                0x08004838                rt_thread_timeout
 .text.rt_list_init
                0x080048d8       0x20 build/src/timer.o
 .text.rt_list_insert_before
                0x080048f8       0x30 build/src/timer.o
 .text.rt_list_remove
                0x08004928       0x34 build/src/timer.o
 .text.rt_list_isempty
                0x0800495c       0x24 build/src/timer.o
 .text._rt_timer_init
                0x08004980       0x50 build/src/timer.o
 .text.rt_timer_init
                0x080049d0       0x68 build/src/timer.o
                0x080049d0                rt_timer_init
 .text.rt_timer_start
                0x08004a38      0x148 build/src/timer.o
                0x08004a38                rt_timer_start
 .text.rt_timer_control
                0x08004b80       0xa4 build/src/timer.o
                0x08004b80                rt_timer_control
 .text.rt_timer_check
                0x08004c24       0xd4 build/src/timer.o
                0x08004c24                rt_timer_check
 .text.rt_system_timer_init
                0x08004cf8       0x14 build/src/timer.o
                0x08004cf8                rt_system_timer_init
 .text.rt_system_timer_thread_init
                0x08004d0c        0xc build/src/timer.o
                0x08004d0c                rt_system_timer_thread_init
 .text.rt_hw_stack_init
                0x08004d18      0x114 build/libcpu/arm/cortex-m3/cpuport.o
                0x08004d18                rt_hw_stack_init
 .text.rt_hw_hard_fault_exception
                0x08004e2c       0xb8 build/libcpu/arm/cortex-m3/cpuport.o
                0x08004e2c                rt_hw_hard_fault_exception
 .text.rt_list_isempty
                0x08004ee4       0x24 build/components/finsh/libfinsh.a(cmd.o)
 .text.rt_list_len
                0x08004f08       0x3c build/components/finsh/libfinsh.a(cmd.o)
 .text.hello    0x08004f44       0x18 build/components/finsh/libfinsh.a(cmd.o)
                0x08004f44                hello
 .text.version  0x08004f5c       0x10 build/components/finsh/libfinsh.a(cmd.o)
                0x08004f5c                version
 .text._list_thread
                0x08004f6c      0x108 build/components/finsh/libfinsh.a(cmd.o)
 .text.list_thread
                0x08005074       0x14 build/components/finsh/libfinsh.a(cmd.o)
                0x08005074                list_thread
 .text.show_wait_queue
                0x08005088       0x54 build/components/finsh/libfinsh.a(cmd.o)
 .text._list_sem
                0x080050dc       0xc4 build/components/finsh/libfinsh.a(cmd.o)
 .text.list_sem
                0x080051a0       0x14 build/components/finsh/libfinsh.a(cmd.o)
                0x080051a0                list_sem
 .text._list_event
                0x080051b4       0xb4 build/components/finsh/libfinsh.a(cmd.o)
 .text.list_event
                0x08005268       0x14 build/components/finsh/libfinsh.a(cmd.o)
                0x08005268                list_event
 .text._list_mutex
                0x0800527c       0x7c build/components/finsh/libfinsh.a(cmd.o)
 .text.list_mutex
                0x080052f8       0x14 build/components/finsh/libfinsh.a(cmd.o)
                0x080052f8                list_mutex
 .text._list_mailbox
                0x0800530c       0xd8 build/components/finsh/libfinsh.a(cmd.o)
 .text.list_mailbox
                0x080053e4       0x14 build/components/finsh/libfinsh.a(cmd.o)
                0x080053e4                list_mailbox
 .text._list_msgqueue
                0x080053f8       0xc4 build/components/finsh/libfinsh.a(cmd.o)
 .text.list_msgqueue
                0x080054bc       0x14 build/components/finsh/libfinsh.a(cmd.o)
                0x080054bc                list_msgqueue
 .text._list_mempool
                0x080054d0       0xb4 build/components/finsh/libfinsh.a(cmd.o)
 .text.list_mempool
                0x08005584       0x14 build/components/finsh/libfinsh.a(cmd.o)
                0x08005584                list_mempool
 .text._list_timer
                0x08005598       0xa0 build/components/finsh/libfinsh.a(cmd.o)
 .text.list_timer
                0x08005638       0x14 build/components/finsh/libfinsh.a(cmd.o)
                0x08005638                list_timer
 .text._list_device
                0x0800564c       0xa0 build/components/finsh/libfinsh.a(cmd.o)
 .text.list_device
                0x080056ec       0x14 build/components/finsh/libfinsh.a(cmd.o)
                0x080056ec                list_device
 .text.list     0x08005700      0x100 build/components/finsh/libfinsh.a(cmd.o)
                0x08005700                list
 .text.str_is_prefix
                0x08005800       0x50 build/components/finsh/libfinsh.a(cmd.o)
 .text.list_prefix
                0x08005850      0x1dc build/components/finsh/libfinsh.a(cmd.o)
                0x08005850                list_prefix
 .text.finsh_var_init
                0x08005a2c       0x28 build/components/finsh/libfinsh.a(finsh_var.o)
                0x08005a2c                finsh_var_init
 .text.finsh_var_insert
                0x08005a54       0xe8 build/components/finsh/libfinsh.a(finsh_var.o)
                0x08005a54                finsh_var_insert
 .text.finsh_var_lookup
                0x08005b3c       0x7c build/components/finsh/libfinsh.a(finsh_var.o)
                0x08005b3c                finsh_var_lookup
 .text.finsh_sysvar_lookup
                0x08005bb8       0x90 build/components/finsh/libfinsh.a(finsh_var.o)
                0x08005bb8                finsh_sysvar_lookup
 .text.finsh_vm_run
                0x08005c48       0x94 build/components/finsh/libfinsh.a(finsh_vm.o)
                0x08005c48                finsh_vm_run
 .text.finsh_syscall_lookup
                0x08005cdc       0x90 build/components/finsh/libfinsh.a(finsh_vm.o)
                0x08005cdc                finsh_syscall_lookup
 .text.finsh_rx_ind
                0x08005d6c       0x64 build/components/finsh/libfinsh.a(shell.o)
 .text.finsh_set_device
                0x08005dd0       0xc4 build/components/finsh/libfinsh.a(shell.o)
                0x08005dd0                finsh_set_device
 .text.finsh_auto_complete
                0x08005e94       0x38 build/components/finsh/libfinsh.a(shell.o)
                0x08005e94                finsh_auto_complete
 .text.finsh_run_line
                0x08005ecc       0xcc build/components/finsh/libfinsh.a(shell.o)
                0x08005ecc                finsh_run_line
 .text.finsh_handle_history
                0x08005f98      0x1e8 build/components/finsh/libfinsh.a(shell.o)
                0x08005f98                finsh_handle_history
 .text.finsh_push_history
                0x08006180      0x164 build/components/finsh/libfinsh.a(shell.o)
                0x08006180                finsh_push_history
 .text.finsh_thread_entry
                0x080062e4      0x340 build/components/finsh/libfinsh.a(shell.o)
                0x080062e4                finsh_thread_entry
 .text.finsh_system_function_init
                0x08006624       0x2c build/components/finsh/libfinsh.a(shell.o)
                0x08006624                finsh_system_function_init
 .text.finsh_system_var_init
                0x08006650       0x2c build/components/finsh/libfinsh.a(shell.o)
                0x08006650                finsh_system_var_init
 .text.finsh_system_init
                0x0800667c       0xf4 build/components/finsh/libfinsh.a(shell.o)
                0x0800667c                finsh_system_init
 .text.finsh_compile
                0x08006770     0x2b04 build/components/finsh/libfinsh.a(finsh_compiler.o)
 .text.finsh_type_check
                0x08009274      0x24c build/components/finsh/libfinsh.a(finsh_compiler.o)
 .text.finsh_compiler_run
                0x080094c0       0xc0 build/components/finsh/libfinsh.a(finsh_compiler.o)
                0x080094c0                finsh_compiler_run
 .text.finsh_error_init
                0x08009580       0x20 build/components/finsh/libfinsh.a(finsh_error.o)
                0x08009580                finsh_error_init
 .text.finsh_error_set
                0x080095a0       0x28 build/components/finsh/libfinsh.a(finsh_error.o)
                0x080095a0                finsh_error_set
 .text.finsh_errno
                0x080095c8       0x18 build/components/finsh/libfinsh.a(finsh_error.o)
                0x080095c8                finsh_errno
 .text.finsh_error_string
                0x080095e0       0x24 build/components/finsh/libfinsh.a(finsh_error.o)
                0x080095e0                finsh_error_string
 .text.finsh_init
                0x08009604       0x2c build/components/finsh/libfinsh.a(finsh_init.o)
                0x08009604                finsh_init
 .text.finsh_stack_bottom
                0x08009630       0x18 build/components/finsh/libfinsh.a(finsh_init.o)
                0x08009630                finsh_stack_bottom
 .text.finsh_flush
                0x08009648       0x24 build/components/finsh/libfinsh.a(finsh_init.o)
                0x08009648                finsh_flush
 .text.finsh_node_init
                0x0800966c       0x28 build/components/finsh/libfinsh.a(finsh_node.o)
                0x0800966c                finsh_node_init
 .text.finsh_node_allocate
                0x08009694       0x90 build/components/finsh/libfinsh.a(finsh_node.o)
                0x08009694                finsh_node_allocate
 .text.finsh_node_new_id
                0x08009724       0xc0 build/components/finsh/libfinsh.a(finsh_node.o)
                0x08009724                finsh_node_new_id
 .text.finsh_node_new_char
                0x080097e4       0x3c build/components/finsh/libfinsh.a(finsh_node.o)
                0x080097e4                finsh_node_new_char
 .text.finsh_node_new_int
                0x08009820       0x38 build/components/finsh/libfinsh.a(finsh_node.o)
                0x08009820                finsh_node_new_int
 .text.finsh_node_new_long
                0x08009858       0x38 build/components/finsh/libfinsh.a(finsh_node.o)
                0x08009858                finsh_node_new_long
 .text.finsh_node_new_string
                0x08009890       0x74 build/components/finsh/libfinsh.a(finsh_node.o)
                0x08009890                finsh_node_new_string
 .text.finsh_node_new_ptr
                0x08009904       0x38 build/components/finsh/libfinsh.a(finsh_node.o)
                0x08009904                finsh_node_new_ptr
 .text.OP_no_op
                0x0800993c        0xc build/components/finsh/libfinsh.a(finsh_ops.o)
                0x0800993c                OP_no_op
 .text.OP_add_byte
                0x08009948       0x58 build/components/finsh/libfinsh.a(finsh_ops.o)
                0x08009948                OP_add_byte
 .text.OP_add_word
                0x080099a0       0x5c build/components/finsh/libfinsh.a(finsh_ops.o)
                0x080099a0                OP_add_word
 .text.OP_add_dword
                0x080099fc       0x54 build/components/finsh/libfinsh.a(finsh_ops.o)
                0x080099fc                OP_add_dword
 .text.OP_sub_byte
                0x08009a50       0x58 build/components/finsh/libfinsh.a(finsh_ops.o)
                0x08009a50                OP_sub_byte
 .text.OP_sub_word
                0x08009aa8       0x5c build/components/finsh/libfinsh.a(finsh_ops.o)
                0x08009aa8                OP_sub_word
 .text.OP_sub_dword
                0x08009b04       0x54 build/components/finsh/libfinsh.a(finsh_ops.o)
                0x08009b04                OP_sub_dword
 .text.OP_div_byte
                0x08009b58       0x58 build/components/finsh/libfinsh.a(finsh_ops.o)
                0x08009b58                OP_div_byte
 .text.OP_div_word
                0x08009bb0       0x5c build/components/finsh/libfinsh.a(finsh_ops.o)
                0x08009bb0                OP_div_word
 .text.OP_div_dword
                0x08009c0c       0x58 build/components/finsh/libfinsh.a(finsh_ops.o)
                0x08009c0c                OP_div_dword
 .text.OP_mod_byte
                0x08009c64       0x60 build/components/finsh/libfinsh.a(finsh_ops.o)
                0x08009c64                OP_mod_byte
 .text.OP_mod_word
                0x08009cc4       0x64 build/components/finsh/libfinsh.a(finsh_ops.o)
                0x08009cc4                OP_mod_word
 .text.OP_mod_dword
                0x08009d28       0x5c build/components/finsh/libfinsh.a(finsh_ops.o)
                0x08009d28                OP_mod_dword
 .text.OP_mul_byte
                0x08009d84       0x58 build/components/finsh/libfinsh.a(finsh_ops.o)
                0x08009d84                OP_mul_byte
 .text.OP_mul_word
                0x08009ddc       0x60 build/components/finsh/libfinsh.a(finsh_ops.o)
                0x08009ddc                OP_mul_word
 .text.OP_mul_dword
                0x08009e3c       0x58 build/components/finsh/libfinsh.a(finsh_ops.o)
                0x08009e3c                OP_mul_dword
 .text.OP_and_byte
                0x08009e94       0x58 build/components/finsh/libfinsh.a(finsh_ops.o)
                0x08009e94                OP_and_byte
 .text.OP_and_word
                0x08009eec       0x58 build/components/finsh/libfinsh.a(finsh_ops.o)
                0x08009eec                OP_and_word
 .text.OP_and_dword
                0x08009f44       0x54 build/components/finsh/libfinsh.a(finsh_ops.o)
                0x08009f44                OP_and_dword
 .text.OP_or_byte
                0x08009f98       0x58 build/components/finsh/libfinsh.a(finsh_ops.o)
                0x08009f98                OP_or_byte
 .text.OP_or_word
                0x08009ff0       0x58 build/components/finsh/libfinsh.a(finsh_ops.o)
                0x08009ff0                OP_or_word
 .text.OP_or_dword
                0x0800a048       0x54 build/components/finsh/libfinsh.a(finsh_ops.o)
                0x0800a048                OP_or_dword
 .text.OP_xor_byte
                0x0800a09c       0x58 build/components/finsh/libfinsh.a(finsh_ops.o)
                0x0800a09c                OP_xor_byte
 .text.OP_xor_word
                0x0800a0f4       0x58 build/components/finsh/libfinsh.a(finsh_ops.o)
                0x0800a0f4                OP_xor_word
 .text.OP_xor_dword
                0x0800a14c       0x54 build/components/finsh/libfinsh.a(finsh_ops.o)
                0x0800a14c                OP_xor_dword
 .text.OP_bw_byte
                0x0800a1a0       0x30 build/components/finsh/libfinsh.a(finsh_ops.o)
                0x0800a1a0                OP_bw_byte
 .text.OP_bw_word
                0x0800a1d0       0x30 build/components/finsh/libfinsh.a(finsh_ops.o)
                0x0800a1d0                OP_bw_word
 .text.OP_bw_dword
                0x0800a200       0x30 build/components/finsh/libfinsh.a(finsh_ops.o)
                0x0800a200                OP_bw_dword
 .text.OP_shl_byte
                0x0800a230       0x5c build/components/finsh/libfinsh.a(finsh_ops.o)
                0x0800a230                OP_shl_byte
 .text.OP_shl_word
                0x0800a28c       0x5c build/components/finsh/libfinsh.a(finsh_ops.o)
                0x0800a28c                OP_shl_word
 .text.OP_shl_dword
                0x0800a2e8       0x58 build/components/finsh/libfinsh.a(finsh_ops.o)
                0x0800a2e8                OP_shl_dword
 .text.OP_shr_byte
                0x0800a340       0x5c build/components/finsh/libfinsh.a(finsh_ops.o)
                0x0800a340                OP_shr_byte
 .text.OP_shr_word
                0x0800a39c       0x5c build/components/finsh/libfinsh.a(finsh_ops.o)
                0x0800a39c                OP_shr_word
 .text.OP_shr_dword
                0x0800a3f8       0x58 build/components/finsh/libfinsh.a(finsh_ops.o)
                0x0800a3f8                OP_shr_dword
 .text.OP_ld_byte
                0x0800a450       0x54 build/components/finsh/libfinsh.a(finsh_ops.o)
                0x0800a450                OP_ld_byte
 .text.OP_ld_word
                0x0800a4a4       0x70 build/components/finsh/libfinsh.a(finsh_ops.o)
                0x0800a4a4                OP_ld_word
 .text.OP_ld_dword
                0x0800a514       0x98 build/components/finsh/libfinsh.a(finsh_ops.o)
                0x0800a514                OP_ld_dword
 .text.OP_ld_value_byte
                0x0800a5ac       0xa4 build/components/finsh/libfinsh.a(finsh_ops.o)
                0x0800a5ac                OP_ld_value_byte
 .text.OP_ld_value_byte_stack
                0x0800a650       0x38 build/components/finsh/libfinsh.a(finsh_ops.o)
                0x0800a650                OP_ld_value_byte_stack
 .text.OP_ld_value_word
                0x0800a688       0xa4 build/components/finsh/libfinsh.a(finsh_ops.o)
                0x0800a688                OP_ld_value_word
 .text.OP_ld_value_word_stack
                0x0800a72c       0x38 build/components/finsh/libfinsh.a(finsh_ops.o)
                0x0800a72c                OP_ld_value_word_stack
 .text.OP_ld_value_dword
                0x0800a764       0xa4 build/components/finsh/libfinsh.a(finsh_ops.o)
                0x0800a764                OP_ld_value_dword
 .text.OP_ld_value_dword_stack
                0x0800a808       0x38 build/components/finsh/libfinsh.a(finsh_ops.o)
                0x0800a808                OP_ld_value_dword_stack
 .text.OP_st_byte
                0x0800a840       0x48 build/components/finsh/libfinsh.a(finsh_ops.o)
                0x0800a840                OP_st_byte
 .text.OP_st_word
                0x0800a888       0x48 build/components/finsh/libfinsh.a(finsh_ops.o)
                0x0800a888                OP_st_word
 .text.OP_st_dword
                0x0800a8d0       0x48 build/components/finsh/libfinsh.a(finsh_ops.o)
                0x0800a8d0                OP_st_dword
 .text.OP_pop   0x0800a918       0x24 build/components/finsh/libfinsh.a(finsh_ops.o)
                0x0800a918                OP_pop
 .text.OP_call  0x0800a93c      0x42c build/components/finsh/libfinsh.a(finsh_ops.o)
                0x0800a93c                OP_call
 .text.proc_variable_decl
                0x0800ad68      0x2f4 build/components/finsh/libfinsh.a(finsh_parser.o)
 .text.proc_type
                0x0800b05c      0x1d8 build/components/finsh/libfinsh.a(finsh_parser.o)
 .text.proc_identifier
                0x0800b234       0x50 build/components/finsh/libfinsh.a(finsh_parser.o)
 .text.proc_expr_statement
                0x0800b284       0x68 build/components/finsh/libfinsh.a(finsh_parser.o)
 .text.proc_expr
                0x0800b2ec       0x1c build/components/finsh/libfinsh.a(finsh_parser.o)
 .text.proc_assign_expr
                0x0800b308       0x54 build/components/finsh/libfinsh.a(finsh_parser.o)
 .text.proc_inclusive_or_expr
                0x0800b35c       0x74 build/components/finsh/libfinsh.a(finsh_parser.o)
 .text.proc_exclusive_or_expr
                0x0800b3d0       0x74 build/components/finsh/libfinsh.a(finsh_parser.o)
 .text.proc_and_expr
                0x0800b444       0x74 build/components/finsh/libfinsh.a(finsh_parser.o)
 .text.proc_shift_expr
                0x0800b4b8       0xa0 build/components/finsh/libfinsh.a(finsh_parser.o)
 .text.proc_additive_expr
                0x0800b558       0xa0 build/components/finsh/libfinsh.a(finsh_parser.o)
 .text.proc_multiplicative_expr
                0x0800b5f8       0xb8 build/components/finsh/libfinsh.a(finsh_parser.o)
 .text.proc_cast_expr
                0x0800b6b0       0x80 build/components/finsh/libfinsh.a(finsh_parser.o)
 .text.proc_unary_expr
                0x0800b730      0x124 build/components/finsh/libfinsh.a(finsh_parser.o)
 .text.proc_postfix_expr
                0x0800b854       0xf0 build/components/finsh/libfinsh.a(finsh_parser.o)
 .text.proc_primary_expr
                0x0800b944      0x160 build/components/finsh/libfinsh.a(finsh_parser.o)
 .text.proc_param_list
                0x0800baa4       0x80 build/components/finsh/libfinsh.a(finsh_parser.o)
 .text.make_sys_node
                0x0800bb24       0x48 build/components/finsh/libfinsh.a(finsh_parser.o)
 .text.finsh_parser_run
                0x0800bb6c      0x164 build/components/finsh/libfinsh.a(finsh_parser.o)
                0x0800bb6c                finsh_parser_run
 .text.finsh_parser_init
                0x0800bcd0       0x2c build/components/finsh/libfinsh.a(finsh_parser.o)
                0x0800bcd0                finsh_parser_init
 .text.finsh_token_init
                0x0800bcfc       0x30 build/components/finsh/libfinsh.a(finsh_token.o)
                0x0800bcfc                finsh_token_init
 .text.finsh_token_token
                0x0800bd2c       0x30 build/components/finsh/libfinsh.a(finsh_token.o)
                0x0800bd2c                finsh_token_token
 .text.token_get_string
                0x0800bd5c       0xb4 build/components/finsh/libfinsh.a(finsh_token.o)
                0x0800bd5c                token_get_string
 .text.token_next_char
                0x0800be10       0x78 build/components/finsh/libfinsh.a(finsh_token.o)
 .text.token_prev_char
                0x0800be88       0x38 build/components/finsh/libfinsh.a(finsh_token.o)
 .text.token_run
                0x0800bec0      0x368 build/components/finsh/libfinsh.a(finsh_token.o)
 .text.token_match_name
                0x0800c228       0x68 build/components/finsh/libfinsh.a(finsh_token.o)
 .text.token_trim_space
                0x0800c290       0x2c build/components/finsh/libfinsh.a(finsh_token.o)
 .text.token_proc_char
                0x0800c2bc       0xf0 build/components/finsh/libfinsh.a(finsh_token.o)
 .text.token_proc_string
                0x0800c3ac       0x84 build/components/finsh/libfinsh.a(finsh_token.o)
 .text.token_proc_escape
                0x0800c430      0x148 build/components/finsh/libfinsh.a(finsh_token.o)
 .text.token_proc_number
                0x0800c578      0x200 build/components/finsh/libfinsh.a(finsh_token.o)
 .text.token_spec_number
                0x0800c778      0x128 build/components/finsh/libfinsh.a(finsh_token.o)
 .text.finsh_heap_init
                0x0800c8a0       0x68 build/components/finsh/libfinsh.a(finsh_heap.o)
                0x0800c8a0                finsh_heap_init
 .text.finsh_heap_allocate
                0x0800c908       0xcc build/components/finsh/libfinsh.a(finsh_heap.o)
                0x0800c908                finsh_heap_allocate
 .text.finsh_heap_free
                0x0800c9d4       0x44 build/components/finsh/libfinsh.a(finsh_heap.o)
                0x0800c9d4                finsh_heap_free
 .text.finsh_heap_gc
                0x0800ca18       0xa8 build/components/finsh/libfinsh.a(finsh_heap.o)
 .text.finsh_block_insert
                0x0800cac0       0x84 build/components/finsh/libfinsh.a(finsh_heap.o)
 .text.finsh_block_remove
                0x0800cb44       0x5c build/components/finsh/libfinsh.a(finsh_heap.o)
 .text.finsh_block_split
                0x0800cba0       0x44 build/components/finsh/libfinsh.a(finsh_heap.o)
 .text.finsh_block_merge
                0x0800cbe4       0xf0 build/components/finsh/libfinsh.a(finsh_heap.o)
 .text.isalpha  0x0800ccd4       0x28 build/components/libc/minilibc/ctype.o
                0x0800ccd4                isalpha
 .text.atoi     0x0800ccfc       0xa0 build/components/libc/minilibc/stdlib.o
                0x0800ccfc                atoi
 .text.strncpy  0x0800cd9c       0x24 build/components/libc/minilibc/string.o
                0x0800cd9c                strncpy
 .text.strcmp   0x0800cdc0       0x48 build/components/libc/minilibc/string.o
                0x0800cdc0                strcmp
 .text.strncmp  0x0800ce08       0x70 build/components/libc/minilibc/string.o
                0x0800ce08                strncmp
 .text.__isleap
                0x0800ce78       0x74 build/components/libc/minilibc/time.o
                0x0800ce78                __isleap
 .text.gmtime_r
                0x0800ceec      0x1a4 build/components/libc/minilibc/time.o
                0x0800ceec                gmtime_r
 .text.localtime_r
                0x0800d090       0x68 build/components/libc/minilibc/time.o
                0x0800d090                localtime_r
 .text.localtime
                0x0800d0f8       0x24 build/components/libc/minilibc/time.o
                0x0800d0f8                localtime
 .text.timegm   0x0800d11c      0x2fc build/components/libc/minilibc/time.o
                0x0800d11c                timegm
 .text.mktime   0x0800d418       0x60 build/components/libc/minilibc/time.o
                0x0800d418                mktime
 .text.num2str  0x0800d478       0x70 build/components/libc/minilibc/time.o
 .text.asctime_r
                0x0800d4e8      0x154 build/components/libc/minilibc/time.o
                0x0800d4e8                asctime_r
 .text.asctime  0x0800d63c       0x24 build/components/libc/minilibc/time.o
                0x0800d63c                asctime
 .text.ctime    0x0800d660       0x24 build/components/libc/minilibc/time.o
                0x0800d660                ctime
 .text.gettimeofday
                0x0800d684       0x58 build/components/libc/minilibc/time.o
                0x0800d684                gettimeofday
 .text.SystemInit
                0x0800d6dc       0xa8 build/bsp/Libraries/CMSIS/CM3/DeviceSupport/ST/STM32F10x/system_stm32f10x.o
                0x0800d6dc                SystemInit
 .text.SetSysClock
                0x0800d784        0xc build/bsp/Libraries/CMSIS/CM3/DeviceSupport/ST/STM32F10x/system_stm32f10x.o
 .text.SetSysClockTo72
                0x0800d790      0x1ac build/bsp/Libraries/CMSIS/CM3/DeviceSupport/ST/STM32F10x/system_stm32f10x.o
 .text.RCC_LSEConfig
                0x0800d93c       0x80 build/bsp/Libraries/STM32F10x_StdPeriph_Driver/src/stm32f10x_rcc.o
                0x0800d93c                RCC_LSEConfig
 .text.RCC_RTCCLKConfig
                0x0800d9bc       0x50 build/bsp/Libraries/STM32F10x_StdPeriph_Driver/src/stm32f10x_rcc.o
                0x0800d9bc                RCC_RTCCLKConfig
 .text.RCC_RTCCLKCmd
                0x0800da0c       0x3c build/bsp/Libraries/STM32F10x_StdPeriph_Driver/src/stm32f10x_rcc.o
                0x0800da0c                RCC_RTCCLKCmd
 .text.RCC_GetClocksFreq
                0x0800da48      0x1d4 build/bsp/Libraries/STM32F10x_StdPeriph_Driver/src/stm32f10x_rcc.o
                0x0800da48                RCC_GetClocksFreq
 .text.RCC_APB2PeriphClockCmd
                0x0800dc1c       0x94 build/bsp/Libraries/STM32F10x_StdPeriph_Driver/src/stm32f10x_rcc.o
                0x0800dc1c                RCC_APB2PeriphClockCmd
 .text.RCC_APB1PeriphClockCmd
                0x0800dcb0       0x94 build/bsp/Libraries/STM32F10x_StdPeriph_Driver/src/stm32f10x_rcc.o
                0x0800dcb0                RCC_APB1PeriphClockCmd
 .text.RCC_BackupResetCmd
                0x0800dd44       0x3c build/bsp/Libraries/STM32F10x_StdPeriph_Driver/src/stm32f10x_rcc.o
                0x0800dd44                RCC_BackupResetCmd
 .text.RCC_GetFlagStatus
                0x0800dd80       0xe0 build/bsp/Libraries/STM32F10x_StdPeriph_Driver/src/stm32f10x_rcc.o
                0x0800dd80                RCC_GetFlagStatus
 .text.PWR_BackupAccessCmd
                0x0800de60       0x3c build/bsp/Libraries/STM32F10x_StdPeriph_Driver/src/stm32f10x_pwr.o
                0x0800de60                PWR_BackupAccessCmd
 .text.BKP_DeInit
                0x0800de9c       0x18 build/bsp/Libraries/STM32F10x_StdPeriph_Driver/src/stm32f10x_bkp.o
                0x0800de9c                BKP_DeInit
 .text.BKP_WriteBackupRegister
                0x0800deb4      0x144 build/bsp/Libraries/STM32F10x_StdPeriph_Driver/src/stm32f10x_bkp.o
                0x0800deb4                BKP_WriteBackupRegister
 .text.BKP_ReadBackupRegister
                0x0800dff8      0x140 build/bsp/Libraries/STM32F10x_StdPeriph_Driver/src/stm32f10x_bkp.o
                0x0800dff8                BKP_ReadBackupRegister
 .text.RTC_EnterConfigMode
                0x0800e138       0x28 build/bsp/Libraries/STM32F10x_StdPeriph_Driver/src/stm32f10x_rtc.o
                0x0800e138                RTC_EnterConfigMode
 .text.RTC_ExitConfigMode
                0x0800e160       0x28 build/bsp/Libraries/STM32F10x_StdPeriph_Driver/src/stm32f10x_rtc.o
                0x0800e160                RTC_ExitConfigMode
 .text.RTC_GetCounter
                0x0800e188       0x38 build/bsp/Libraries/STM32F10x_StdPeriph_Driver/src/stm32f10x_rtc.o
                0x0800e188                RTC_GetCounter
 .text.RTC_SetCounter
                0x0800e1c0       0x38 build/bsp/Libraries/STM32F10x_StdPeriph_Driver/src/stm32f10x_rtc.o
                0x0800e1c0                RTC_SetCounter
 .text.RTC_SetPrescaler
                0x0800e1f8       0x5c build/bsp/Libraries/STM32F10x_StdPeriph_Driver/src/stm32f10x_rtc.o
                0x0800e1f8                RTC_SetPrescaler
 .text.RTC_WaitForLastTask
                0x0800e254       0x20 build/bsp/Libraries/STM32F10x_StdPeriph_Driver/src/stm32f10x_rtc.o
                0x0800e254                RTC_WaitForLastTask
 .text.RTC_WaitForSynchro
                0x0800e274       0x3c build/bsp/Libraries/STM32F10x_StdPeriph_Driver/src/stm32f10x_rtc.o
                0x0800e274                RTC_WaitForSynchro
 .text.GPIO_Init
                0x0800e2b0      0x2b0 build/bsp/Libraries/STM32F10x_StdPeriph_Driver/src/stm32f10x_gpio.o
                0x0800e2b0                GPIO_Init
 .text.GPIO_SetBits
                0x0800e560       0xa4 build/bsp/Libraries/STM32F10x_StdPeriph_Driver/src/stm32f10x_gpio.o
                0x0800e560                GPIO_SetBits
 .text.GPIO_ResetBits
                0x0800e604       0xa4 build/bsp/Libraries/STM32F10x_StdPeriph_Driver/src/stm32f10x_gpio.o
                0x0800e604                GPIO_ResetBits
 .text.USART_Init
                0x0800e6a8      0x34c build/bsp/Libraries/STM32F10x_StdPeriph_Driver/src/stm32f10x_usart.o
                0x0800e6a8                USART_Init
 .text.USART_ClockInit
                0x0800e9f4      0x118 build/bsp/Libraries/STM32F10x_StdPeriph_Driver/src/stm32f10x_usart.o
                0x0800e9f4                USART_ClockInit
 .text.USART_Cmd
                0x0800eb0c       0xb0 build/bsp/Libraries/STM32F10x_StdPeriph_Driver/src/stm32f10x_usart.o
                0x0800eb0c                USART_Cmd
 .text.USART_ITConfig
                0x0800ebbc      0x1b0 build/bsp/Libraries/STM32F10x_StdPeriph_Driver/src/stm32f10x_usart.o
                0x0800ebbc                USART_ITConfig
 .text.USART_GetITStatus
                0x0800ed6c      0x1c4 build/bsp/Libraries/STM32F10x_StdPeriph_Driver/src/stm32f10x_usart.o
                0x0800ed6c                USART_GetITStatus
 .text.USART_ClearITPendingBit
                0x0800ef30      0x114 build/bsp/Libraries/STM32F10x_StdPeriph_Driver/src/stm32f10x_usart.o
                0x0800ef30                USART_ClearITPendingBit
 .text.DMA_Cmd  0x0800f044      0x10c build/bsp/Libraries/STM32F10x_StdPeriph_Driver/src/stm32f10x_dma.o
                0x0800f044                DMA_Cmd
 .text.NVIC_Init
                0x0800f150      0x134 build/bsp/Libraries/STM32F10x_StdPeriph_Driver/src/misc.o
                0x0800f150                NVIC_Init
 .text.NVIC_SetVectorTable
                0x0800f284       0x68 build/bsp/Libraries/STM32F10x_StdPeriph_Driver/src/misc.o
                0x0800f284                NVIC_SetVectorTable
 .text.Reset_Handler
                0x0800f2ec       0x4c build/bsp/Libraries/CMSIS/CM3/DeviceSupport/ST/STM32F10x/startup/gcc_ride7/startup_stm32f10x_hd.o
                0x0800f2ec                Reset_Handler
 .text.Default_Handler
                0x0800f338        0x4 build/bsp/Libraries/CMSIS/CM3/DeviceSupport/ST/STM32F10x/startup/gcc_ride7/startup_stm32f10x_hd.o
                0x0800f338                EXTI2_IRQHandler
                0x0800f338                TIM8_TRG_COM_IRQHandler
                0x0800f338                TIM8_CC_IRQHandler
                0x0800f338                TIM1_CC_IRQHandler
                0x0800f338                TIM6_IRQHandler
                0x0800f338                PVD_IRQHandler
                0x0800f338                SDIO_IRQHandler
                0x0800f338                EXTI3_IRQHandler
                0x0800f338                EXTI0_IRQHandler
                0x0800f338                I2C2_EV_IRQHandler
                0x0800f338                ADC1_2_IRQHandler
                0x0800f338                SPI1_IRQHandler
                0x0800f338                TAMPER_IRQHandler
                0x0800f338                TIM8_UP_IRQHandler
                0x0800f338                DMA2_Channel2_IRQHandler
                0x0800f338                DMA1_Channel4_IRQHandler
                0x0800f338                RTC_IRQHandler
                0x0800f338                DMA1_Channel7_IRQHandler
                0x0800f338                CAN1_RX1_IRQHandler
                0x0800f338                UART5_IRQHandler
                0x0800f338                ADC3_IRQHandler
                0x0800f338                TIM4_IRQHandler
                0x0800f338                DMA2_Channel1_IRQHandler
                0x0800f338                I2C1_EV_IRQHandler
                0x0800f338                DMA1_Channel6_IRQHandler
                0x0800f338                UART4_IRQHandler
                0x0800f338                TIM3_IRQHandler
                0x0800f338                RCC_IRQHandler
                0x0800f338                TIM1_TRG_COM_IRQHandler
                0x0800f338                DMA1_Channel1_IRQHandler
                0x0800f338                Default_Handler
                0x0800f338                EXTI15_10_IRQHandler
                0x0800f338                TIM7_IRQHandler
                0x0800f338                TIM5_IRQHandler
                0x0800f338                EXTI9_5_IRQHandler
                0x0800f338                SPI2_IRQHandler
                0x0800f338                DMA1_Channel5_IRQHandler
                0x0800f338                EXTI4_IRQHandler
                0x0800f338                USB_LP_CAN1_RX0_IRQHandler
                0x0800f338                USB_HP_CAN1_TX_IRQHandler
                0x0800f338                DMA1_Channel3_IRQHandler
                0x0800f338                FSMC_IRQHandler
                0x0800f338                TIM1_UP_IRQHandler
                0x0800f338                WWDG_IRQHandler
                0x0800f338                TIM2_IRQHandler
                0x0800f338                TIM1_BRK_IRQHandler
                0x0800f338                EXTI1_IRQHandler
                0x0800f338                RTCAlarm_IRQHandler
                0x0800f338                DMA2_Channel4_5_IRQHandler
                0x0800f338                I2C2_ER_IRQHandler
                0x0800f338                TIM8_BRK_IRQHandler
                0x0800f338                CAN1_SCE_IRQHandler
                0x0800f338                FLASH_IRQHandler
                0x0800f338                SPI3_IRQHandler
                0x0800f338                I2C1_ER_IRQHandler
                0x0800f338                USBWakeUp_IRQHandler
                0x0800f338                DMA2_Channel3_IRQHandler
 *(.rodata)
 .rodata        0x0800f33c        0xc build/bsp/application.o
 .rodata        0x0800f348       0x58 build/bsp/startup.o
 .rodata        0x0800f3a0        0x8 build/bsp/board.o
 .rodata        0x0800f3a8       0x98 build/bsp/rtc.o
 .rodata        0x0800f440        0x8 build/bsp/usart.o
 .rodata        0x0800f448       0xf4 build/bsp/serial.o
 .rodata        0x0800f53c       0x68 build/src/device.o
 .rodata        0x0800f5a4       0x50 build/src/idle.o
 .rodata        0x0800f5f4       0xc0 build/src/ipc.o
 .rodata        0x0800f6b4       0x90 build/src/kservice.o
 .rodata        0x0800f744      0x2d0 build/src/mem.o
 .rodata        0x0800fa14       0x58 build/src/mempool.o
 .rodata        0x0800fa6c       0x88 build/src/object.o
 .rodata        0x0800faf4       0x88 build/src/scheduler.o
 .rodata        0x0800fb7c       0xb4 build/src/thread.o
 .rodata        0x0800fc30       0x58 build/src/timer.o
 .rodata        0x0800fc88       0xd0 build/libcpu/arm/cortex-m3/cpuport.o
 .rodata        0x0800fd58      0x5d8 build/components/finsh/libfinsh.a(cmd.o)
 .rodata        0x08010330       0xcc build/components/finsh/libfinsh.a(shell.o)
 .rodata        0x080103fc       0xf4 build/components/finsh/libfinsh.a(finsh_error.o)
 .rodata        0x080104f0       0x40 build/components/finsh/libfinsh.a(finsh_token.o)
 .rodata        0x08010530        0x4 build/components/libc/minilibc/time.o
 .rodata        0x08010534       0x3c build/bsp/Libraries/STM32F10x_StdPeriph_Driver/src/stm32f10x_rcc.o
 .rodata        0x08010570       0x3c build/bsp/Libraries/STM32F10x_StdPeriph_Driver/src/stm32f10x_pwr.o
 .rodata        0x080105ac       0x3c build/bsp/Libraries/STM32F10x_StdPeriph_Driver/src/stm32f10x_bkp.o
 .rodata        0x080105e8       0x3c build/bsp/Libraries/STM32F10x_StdPeriph_Driver/src/stm32f10x_rtc.o
 .rodata        0x08010624       0x3c build/bsp/Libraries/STM32F10x_StdPeriph_Driver/src/stm32f10x_gpio.o
 .rodata        0x08010660       0x3c build/bsp/Libraries/STM32F10x_StdPeriph_Driver/src/stm32f10x_usart.o
 .rodata        0x0801069c       0x3c build/bsp/Libraries/STM32F10x_StdPeriph_Driver/src/stm32f10x_dma.o
 .rodata        0x080106d8       0x30 build/bsp/Libraries/STM32F10x_StdPeriph_Driver/src/misc.o
 *(.rodata*)
 .rodata.__fsym_set_date_name
                0x08010708        0xc build/bsp/rtc.o
                0x08010708                __fsym_set_date_name
 .rodata.__fsym_set_date_desc
                0x08010714       0x24 build/bsp/rtc.o
                0x08010714                __fsym_set_date_desc
 .rodata.__fsym_set_time_name
                0x08010738        0xc build/bsp/rtc.o
                0x08010738                __fsym_set_time_name
 .rodata.__fsym_set_time_desc
                0x08010744       0x24 build/bsp/rtc.o
                0x08010744                __fsym_set_time_desc
 .rodata.__fsym_list_date_name
                0x08010768        0xc build/bsp/rtc.o
                0x08010768                __fsym_list_date_name
 .rodata.__fsym_list_date_desc
                0x08010774       0x14 build/bsp/rtc.o
                0x08010774                __fsym_list_date_desc
 .rodata.__FUNCTION__.6971
                0x08010788       0x10 build/bsp/rtc.o
 .rodata.__FUNCTION__.7146
                0x08010798       0x14 build/bsp/serial.o
 .rodata.__FUNCTION__.7133
                0x080107ac       0x18 build/bsp/serial.o
 .rodata.__FUNCTION__.7119
                0x080107c4       0x14 build/bsp/serial.o
 .rodata.__FUNCTION__.7091
                0x080107d8       0x10 build/bsp/serial.o
 .rodata.__FUNCTION__.7077
                0x080107e8       0x18 build/bsp/serial.o
 .rodata.__FUNCTION__.7041
                0x08010800       0x10 build/bsp/serial.o
 .rodata.__fsym_led_name
                0x08010810        0x4 build/bsp/led.o
                0x08010810                __fsym_led_name
 .rodata.__fsym_led_desc
                0x08010814       0x20 build/bsp/led.o
                0x08010814                __fsym_led_desc
 .rodata.__FUNCTION__.4749
                0x08010834       0x1c build/src/device.o
 .rodata.__FUNCTION__.4738
                0x08010850       0x14 build/src/device.o
 .rodata.__FUNCTION__.4724
                0x08010864       0x10 build/src/device.o
 .rodata.__FUNCTION__.4708
                0x08010874       0x10 build/src/device.o
 .rodata.__FUNCTION__.4692
                0x08010884       0x10 build/src/device.o
 .rodata.__FUNCTION__.4681
                0x08010894       0x10 build/src/device.o
 .rodata.__FUNCTION__.4689
                0x080108a4       0x18 build/src/idle.o
 .rodata.__FUNCTION__.4761
                0x080108bc        0xc build/src/ipc.o
 .rodata.__FUNCTION__.4717
                0x080108c8        0xc build/src/ipc.o
 .rodata.large_digits.4823
                0x080108d4       0x14 build/src/kservice.o
 .rodata.small_digits.4822
                0x080108e8       0x14 build/src/kservice.o
 .rodata.__fsym_list_mem_name
                0x080108fc        0xc build/src/mem.o
                0x080108fc                __fsym_list_mem_name
 .rodata.__fsym_list_mem_desc
                0x08010908       0x20 build/src/mem.o
                0x08010908                __fsym_list_mem_desc
 .rodata.__FUNCTION__.4783
                0x08010928        0x8 build/src/mem.o
 .rodata.__FUNCTION__.4724
                0x08010930        0xc build/src/mem.o
 .rodata.__FUNCTION__.4711
                0x0801093c       0x14 build/src/mem.o
 .rodata.__FUNCTION__.4691
                0x08010950        0xc build/src/mem.o
 .rodata.__FUNCTION__.4765
                0x0801095c        0xc build/src/mempool.o
 .rodata.__FUNCTION__.4702
                0x08010968        0xc build/src/mempool.o
 .rodata.__FUNCTION__.4759
                0x08010974       0x1c build/src/object.o
 .rodata.__FUNCTION__.4747
                0x08010990       0x14 build/src/object.o
 .rodata.__FUNCTION__.4737
                0x080109a4       0x14 build/src/object.o
 .rodata.__FUNCTION__.4725
                0x080109b8       0x14 build/src/object.o
 .rodata.rt_lowest_bitmap
                0x080109cc      0x100 build/src/scheduler.o
                0x080109cc                rt_lowest_bitmap
 .rodata.__FUNCTION__.4742
                0x08010acc       0x1c build/src/scheduler.o
 .rodata.__FUNCTION__.4733
                0x08010ae8       0x1c build/src/scheduler.o
 .rodata.__FUNCTION__.4696
                0x08010b04       0x1c build/src/scheduler.o
 .rodata.__FUNCTION__.4825
                0x08010b20       0x14 build/src/thread.o
 .rodata.__FUNCTION__.4816
                0x08010b34       0x14 build/src/thread.o
 .rodata.__FUNCTION__.4807
                0x08010b48       0x14 build/src/thread.o
 .rodata.__FUNCTION__.4779
                0x08010b5c       0x10 build/src/thread.o
 .rodata.__FUNCTION__.4737
                0x08010b6c       0x14 build/src/thread.o
 .rodata.__FUNCTION__.4711
                0x08010b80       0x10 build/src/thread.o
 .rodata.__FUNCTION__.4695
                0x08010b90       0x10 build/src/thread.o
 .rodata.__FUNCTION__.4774
                0x08010ba0       0x14 build/src/timer.o
 .rodata.__FUNCTION__.4748
                0x08010bb4       0x10 build/src/timer.o
 .rodata.__FUNCTION__.4709
                0x08010bc4       0x10 build/src/timer.o
 .rodata.__fsym_hello_name
                0x08010bd4        0x8 build/components/finsh/libfinsh.a(cmd.o)
                0x08010bd4                __fsym_hello_name
 .rodata.__fsym_hello_desc
                0x08010bdc       0x10 build/components/finsh/libfinsh.a(cmd.o)
                0x08010bdc                __fsym_hello_desc
 .rodata.__fsym_version_name
                0x08010bec        0x8 build/components/finsh/libfinsh.a(cmd.o)
                0x08010bec                __fsym_version_name
 .rodata.__fsym_version_desc
                0x08010bf4       0x24 build/components/finsh/libfinsh.a(cmd.o)
                0x08010bf4                __fsym_version_desc
 .rodata.__fsym_list_thread_name
                0x08010c18        0xc build/components/finsh/libfinsh.a(cmd.o)
                0x08010c18                __fsym_list_thread_name
 .rodata.__fsym_list_thread_desc
                0x08010c24        0xc build/components/finsh/libfinsh.a(cmd.o)
                0x08010c24                __fsym_list_thread_desc
 .rodata.__fsym_list_sem_name
                0x08010c30        0xc build/components/finsh/libfinsh.a(cmd.o)
                0x08010c30                __fsym_list_sem_name
 .rodata.__fsym_list_sem_desc
                0x08010c3c       0x1c build/components/finsh/libfinsh.a(cmd.o)
                0x08010c3c                __fsym_list_sem_desc
 .rodata.__fsym_list_event_name
                0x08010c58        0xc build/components/finsh/libfinsh.a(cmd.o)
                0x08010c58                __fsym_list_event_name
 .rodata.__fsym_list_event_desc
                0x08010c64       0x18 build/components/finsh/libfinsh.a(cmd.o)
                0x08010c64                __fsym_list_event_desc
 .rodata.__fsym_list_mutex_name
                0x08010c7c        0xc build/components/finsh/libfinsh.a(cmd.o)
                0x08010c7c                __fsym_list_mutex_name
 .rodata.__fsym_list_mutex_desc
                0x08010c88       0x18 build/components/finsh/libfinsh.a(cmd.o)
                0x08010c88                __fsym_list_mutex_desc
 .rodata.__fsym_list_mailbox_name
                0x08010ca0       0x10 build/components/finsh/libfinsh.a(cmd.o)
                0x08010ca0                __fsym_list_mailbox_name
 .rodata.__fsym_list_mailbox_desc
                0x08010cb0       0x18 build/components/finsh/libfinsh.a(cmd.o)
                0x08010cb0                __fsym_list_mailbox_desc
 .rodata.__fsym_list_msgqueue_name
                0x08010cc8       0x10 build/components/finsh/libfinsh.a(cmd.o)
                0x08010cc8                __fsym_list_msgqueue_name
 .rodata.__fsym_list_msgqueue_desc
                0x08010cd8       0x20 build/components/finsh/libfinsh.a(cmd.o)
                0x08010cd8                __fsym_list_msgqueue_desc
 .rodata.__fsym_list_mempool_name
                0x08010cf8       0x10 build/components/finsh/libfinsh.a(cmd.o)
                0x08010cf8                __fsym_list_mempool_name
 .rodata.__fsym_list_mempool_desc
                0x08010d08       0x1c build/components/finsh/libfinsh.a(cmd.o)
                0x08010d08                __fsym_list_mempool_desc
 .rodata.__fsym_list_timer_name
                0x08010d24        0xc build/components/finsh/libfinsh.a(cmd.o)
                0x08010d24                __fsym_list_timer_name
 .rodata.__fsym_list_timer_desc
                0x08010d30       0x18 build/components/finsh/libfinsh.a(cmd.o)
                0x08010d30                __fsym_list_timer_desc
 .rodata.__fsym_list_device_name
                0x08010d48        0xc build/components/finsh/libfinsh.a(cmd.o)
                0x08010d48                __fsym_list_device_name
 .rodata.__fsym_list_device_desc
                0x08010d54       0x18 build/components/finsh/libfinsh.a(cmd.o)
                0x08010d54                __fsym_list_device_desc
 .rodata.__fsym_list_name
                0x08010d6c        0x8 build/components/finsh/libfinsh.a(cmd.o)
                0x08010d6c                __fsym_list_name
 .rodata.__fsym_list_desc
                0x08010d74       0x1c build/components/finsh/libfinsh.a(cmd.o)
                0x08010d74                __fsym_list_desc
 .rodata.__vsym_dummy_name
                0x08010d90        0x8 build/components/finsh/libfinsh.a(cmd.o)
                0x08010d90                __vsym_dummy_name
 .rodata.__vsym_dummy_desc
                0x08010d98       0x1c build/components/finsh/libfinsh.a(cmd.o)
                0x08010d98                __vsym_dummy_desc
 .rodata.__FUNCTION__.4897
                0x08010db4       0x14 build/components/finsh/libfinsh.a(shell.o)
 .rodata.__FUNCTION__.4888
                0x08010dc8       0x10 build/components/finsh/libfinsh.a(shell.o)
 .rodata.op_table
                0x08010dd8       0xc4 build/components/finsh/libfinsh.a(finsh_ops.o)
                0x08010dd8                op_table
 .rodata.finsh_name_table
                0x08010e9c       0x40 build/components/finsh/libfinsh.a(finsh_token.o)
 .rodata.__spm  0x08010edc       0x1c build/components/libc/minilibc/time.o
                0x08010edc                __spm
 .rodata.days   0x08010ef8       0x20 build/components/libc/minilibc/time.o
 .rodata.months
                0x08010f18       0x34 build/components/libc/minilibc/time.o
 *(.glue_7)
 .glue_7        0x00000000        0x0 linker stubs
 *(.glue_7t)
 .glue_7t       0x00000000        0x0 linker stubs
 *(.gnu.linkonce.t*)
                0x08010f4c                . = ALIGN (0x4)
                0x08010f4c                __fsymtab_start = .
 *(FSymTab)
 FSymTab        0x08010f4c       0x24 build/bsp/rtc.o
                0x08010f4c                __fsym_set_date
                0x08010f58                __fsym_set_time
                0x08010f64                __fsym_list_date
 FSymTab        0x08010f70        0xc build/bsp/led.o
                0x08010f70                __fsym_led
 FSymTab        0x08010f7c        0xc build/src/mem.o
                0x08010f7c                __fsym_list_mem
 FSymTab        0x08010f88       0x90 build/components/finsh/libfinsh.a(cmd.o)
                0x08010f88                __fsym_hello
                0x08010f94                __fsym_version
                0x08010fa0                __fsym_list_thread
                0x08010fac                __fsym_list_sem
                0x08010fb8                __fsym_list_event
                0x08010fc4                __fsym_list_mutex
                0x08010fd0                __fsym_list_mailbox
                0x08010fdc                __fsym_list_msgqueue
                0x08010fe8                __fsym_list_mempool
                0x08010ff4                __fsym_list_timer
                0x08011000                __fsym_list_device
                0x0801100c                __fsym_list
                0x08011018                __fsymtab_end = .
                0x08011018                . = ALIGN (0x4)
                0x08011018                __vsymtab_start = .
 *(VSymTab)
 VSymTab        0x08011018       0x10 build/components/finsh/libfinsh.a(cmd.o)
                0x08011018                __vsym_dummy
                0x08011028                __vsymtab_end = .
                0x08011028                . = ALIGN (0x4)
                0x08011028                . = ALIGN (0x4)
                0x08011028                _etext = .
                0x08011028                __exidx_start = .

.vfp11_veneer   0x08011028        0x0
 .vfp11_veneer  0x00000000        0x0 linker stubs

.v4_bx          0x08011028        0x0
 .v4_bx         0x00000000        0x0 linker stubs

.iplt           0x08011028        0x0
 .iplt          0x00000000        0x0 /opt/arm-2012.03/bin/../lib/gcc/arm-none-eabi/4.6.3/thumb2/crtbegin.o

.rel.dyn        0x08011028        0x0
 .rel.iplt      0x00000000        0x0 /opt/arm-2012.03/bin/../lib/gcc/arm-none-eabi/4.6.3/thumb2/crtbegin.o

.ARM.exidx      0x08011028        0x0
 *(.ARM.exidx* .gnu.linkonce.armexidx.*)
                0x08011028                _sidata = .
                0x08011028                __exidx_end = .

.data           0x20000000       0xf0 load address 0x08011028
                0x20000000                . = ALIGN (0x4)
                0x20000000                _sdata = .
 *(.data)
 *(.data.*)
 .data.uart1    0x20000000        0xc build/bsp/usart.o
                0x20000000                uart1
 .data.rt_object_container
                0x2000000c       0x90 build/src/object.o
                0x2000000c                rt_object_container
 .data.finsh_error_string_table
                0x2000009c       0x3c build/components/finsh/libfinsh.a(finsh_error.o)
 .data.SystemCoreClock
                0x200000d8        0x4 build/bsp/Libraries/CMSIS/CM3/DeviceSupport/ST/STM32F10x/system_stm32f10x.o
                0x200000d8                SystemCoreClock
 .data.APBAHBPrescTable
                0x200000dc       0x10 build/bsp/Libraries/STM32F10x_StdPeriph_Driver/src/stm32f10x_rcc.o
 .data.ADCPrescTable
                0x200000ec        0x4 build/bsp/Libraries/STM32F10x_StdPeriph_Driver/src/stm32f10x_rcc.o
 *(.gnu.linkonce.d*)
                0x200000f0                . = ALIGN (0x4)
                0x200000f0                _edata = .

.igot.plt       0x200000f0        0x0 load address 0x08011118
 .igot.plt      0x00000000        0x0 /opt/arm-2012.03/bin/../lib/gcc/arm-none-eabi/4.6.3/thumb2/crtbegin.o

.stack          0x200000f0      0x100 load address 0x08011118
                0x200001f0                . = (. + _system_stack_size)
 *fill*         0x200000f0      0x100 00
                0x200001f0                . = ALIGN (0x4)
                0x200001f0                _estack = .
                0x200001f0                __bss_start = .

.bss            0x200001f0     0x13f4 load address 0x08011218
                0x200001f0                . = ALIGN (0x4)
                0x200001f0                _sbss = .
 *(.bss)
 *(.bss.*)
 .bss.led_stack
                0x200001f0      0x200 build/bsp/application.o
 .bss.led_thread
                0x200003f0       0x80 build/bsp/application.o
 .bss.rtc       0x20000470       0x40 build/bsp/rtc.o
 .bss.led_inited
                0x200004b0        0x1 build/bsp/led.o
 *fill*         0x200004b1        0x3 00
 .bss.rt_tick   0x200004b4        0x4 build/src/clock.o
 .bss.idle      0x200004b8       0x80 build/src/idle.o
 .bss.rt_thread_stack
                0x20000538      0x100 build/src/idle.o
 .bss.rt_thread_idle_hook
                0x20000638        0x4 build/src/idle.o
 .bss._errno    0x2000063c        0x4 build/src/kservice.o
 .bss._console_device
                0x20000640        0x4 build/src/kservice.o
 .bss.rt_log_buf.4927
                0x20000644       0x80 build/src/kservice.o
 .bss.rt_malloc_hook
                0x200006c4        0x4 build/src/mem.o
 .bss.rt_free_hook
                0x200006c8        0x4 build/src/mem.o
 .bss.heap_ptr  0x200006cc        0x4 build/src/mem.o
 .bss.heap_end  0x200006d0        0x4 build/src/mem.o
 .bss.lfree     0x200006d4        0x4 build/src/mem.o
 .bss.heap_sem  0x200006d8       0x20 build/src/mem.o
 .bss.mem_size_aligned
                0x200006f8        0x4 build/src/mem.o
 .bss.used_mem  0x200006fc        0x4 build/src/mem.o
 .bss.max_mem   0x20000700        0x4 build/src/mem.o
 .bss.rt_mp_alloc_hook
                0x20000704        0x4 build/src/mempool.o
 .bss.rt_object_attach_hook
                0x20000708        0x4 build/src/object.o
 .bss.rt_object_detach_hook
                0x2000070c        0x4 build/src/object.o
 .bss.rt_scheduler_lock_nest
                0x20000710        0x2 build/src/scheduler.o
 *fill*         0x20000712        0x2 00
 .bss.rt_scheduler_hook
                0x20000714        0x4 build/src/scheduler.o
 .bss.rt_timer_list
                0x20000718        0x8 build/src/timer.o
 .bss.rt_timer_timeout_hook
                0x20000720        0x4 build/src/timer.o
 .bss.dummy     0x20000724        0x4 build/components/finsh/libfinsh.a(cmd.o)
 .bss.global_syscall_list
                0x20000728        0x4 build/components/finsh/libfinsh.a(finsh_vm.o)
                0x20000728                global_syscall_list
 .bss.finsh_thread
                0x2000072c       0x80 build/components/finsh/libfinsh.a(shell.o)
 .bss.finsh_thread_stack
                0x200007ac      0x800 build/components/finsh/libfinsh.a(shell.o)
 .bss._syscall_table_begin
                0x20000fac        0x4 build/components/finsh/libfinsh.a(symbol.o)
                0x20000fac                _syscall_table_begin
 .bss._syscall_table_end
                0x20000fb0        0x4 build/components/finsh/libfinsh.a(symbol.o)
                0x20000fb0                _syscall_table_end
 .bss._sysvar_table_begin
                0x20000fb4        0x4 build/components/finsh/libfinsh.a(symbol.o)
                0x20000fb4                _sysvar_table_begin
 .bss._sysvar_table_end
                0x20000fb8        0x4 build/components/finsh/libfinsh.a(symbol.o)
                0x20000fb8                _sysvar_table_end
 .bss.free_list
                0x20000fbc        0x4 build/components/finsh/libfinsh.a(finsh_heap.o)
 .bss.allocate_list
                0x20000fc0        0x4 build/components/finsh/libfinsh.a(finsh_heap.o)
 .bss.timezone  0x20000fc4        0x4 build/components/libc/minilibc/time.o
 .bss.buf.4693  0x20000fc8       0x1c build/components/libc/minilibc/time.o
 .bss.tmp.4666  0x20000fe4       0x2c build/components/libc/minilibc/time.o
 *(COMMON)
 COMMON         0x20001010       0x88 build/bsp/usart.o
                0x20001010                uart1_int_rx
                0x20001058                uart1_device
 COMMON         0x20001098        0x1 build/src/irq.o
                0x20001098                rt_interrupt_nest
 *fill*         0x20001099        0x3 00
 COMMON         0x2000109c        0xc build/src/object.o
                0x2000109c                rt_object_put_hook
                0x200010a0                rt_object_take_hook
                0x200010a4                rt_object_trytake_hook
 COMMON         0x200010a8      0x114 build/src/scheduler.o
                0x200010a8                rt_thread_priority_table
                0x200011a8                rt_current_priority
                0x200011ac                rt_current_thread
                0x200011b0                rt_thread_ready_priority_group
                0x200011b4                rt_thread_defunct
 COMMON         0x200011bc        0xc build/libcpu/arm/cortex-m3/cpuport.o
                0x200011bc                rt_interrupt_to_thread
                0x200011c0                rt_interrupt_from_thread
                0x200011c4                rt_thread_switch_interrupt_flag
 COMMON         0x200011c8       0xc4 build/components/finsh/libfinsh.a(finsh_var.o)
                0x200011c8                global_sysvar_list
                0x200011cc                global_variable
 COMMON         0x2000128c      0x188 build/components/finsh/libfinsh.a(finsh_vm.o)
                0x2000128c                text_segment
                0x2000130c                finsh_vm_stack
                0x2000140c                finsh_pc
                0x20001410                finsh_sp
 COMMON         0x20001414        0x4 build/components/finsh/libfinsh.a(shell.o)
                0x20001414                shell
 COMMON         0x20001418        0x8 build/components/finsh/libfinsh.a(finsh_compiler.o)
                0x20001418                finsh_compile_pc
                0x2000141c                finsh_compile_sp
 COMMON         0x20001420        0x1 build/components/finsh/libfinsh.a(finsh_error.o)
                0x20001420                global_errno
 *fill*         0x20001421        0x3 00
 COMMON         0x20001424      0x140 build/components/finsh/libfinsh.a(finsh_node.o)
                0x20001424                global_node_table
 COMMON         0x20001564       0x80 build/components/finsh/libfinsh.a(finsh_heap.o)
                0x20001564                finsh_heap
                0x200015e4                . = ALIGN (0x4)
                0x200015e4                _ebss = .
 *(.bss.init)
                0x200015e4                __bss_end = .
                0x200015e4                _end = .

.stab
 *(.stab)

.stabstr
 *(.stabstr)

.stab.excl
 *(.stab.excl)

.stab.exclstr
 *(.stab.exclstr)

.stab.index
 *(.stab.index)

.stab.indexstr
 *(.stab.indexstr)

.comment        0x00000000       0x30
 *(.comment)
 .comment       0x00000000       0x30 build/bsp/application.o
                                 0x31 (size before relaxing)
 .comment       0x00000000       0x31 build/bsp/startup.o
 .comment       0x00000000       0x31 build/bsp/board.o
 .comment       0x00000000       0x31 build/bsp/stm32f10x_it.o
 .comment       0x00000000       0x31 build/bsp/rtc.o
 .comment       0x00000000       0x31 build/bsp/usart.o
 .comment       0x00000000       0x31 build/bsp/serial.o
 .comment       0x00000000       0x31 build/bsp/led.o
 .comment       0x00000000       0x31 build/src/clock.o
 .comment       0x00000000       0x31 build/src/device.o
 .comment       0x00000000       0x31 build/src/idle.o
 .comment       0x00000000       0x31 build/src/ipc.o
 .comment       0x00000000       0x31 build/src/irq.o
 .comment       0x00000000       0x31 build/src/kservice.o
 .comment       0x00000000       0x31 build/src/mem.o
 .comment       0x00000000       0x31 build/src/mempool.o
 .comment       0x00000000       0x31 build/src/object.o
 .comment       0x00000000       0x31 build/src/scheduler.o
 .comment       0x00000000       0x31 build/src/thread.o
 .comment       0x00000000       0x31 build/src/timer.o
 .comment       0x00000000       0x31 build/libcpu/arm/cortex-m3/cpuport.o
 .comment       0x00000000       0x31 build/components/finsh/libfinsh.a(cmd.o)
 .comment       0x00000000       0x31 build/components/finsh/libfinsh.a(finsh_var.o)
 .comment       0x00000000       0x31 build/components/finsh/libfinsh.a(finsh_vm.o)
 .comment       0x00000000       0x31 build/components/finsh/libfinsh.a(shell.o)
 .comment       0x00000000       0x31 build/components/finsh/libfinsh.a(symbol.o)
 .comment       0x00000000       0x31 build/components/finsh/libfinsh.a(finsh_compiler.o)
 .comment       0x00000000       0x31 build/components/finsh/libfinsh.a(finsh_error.o)
 .comment       0x00000000       0x31 build/components/finsh/libfinsh.a(finsh_init.o)
 .comment       0x00000000       0x31 build/components/finsh/libfinsh.a(finsh_node.o)
 .comment       0x00000000       0x31 build/components/finsh/libfinsh.a(finsh_ops.o)
 .comment       0x00000000       0x31 build/components/finsh/libfinsh.a(finsh_parser.o)
 .comment       0x00000000       0x31 build/components/finsh/libfinsh.a(finsh_token.o)
 .comment       0x00000000       0x31 build/components/finsh/libfinsh.a(finsh_heap.o)
 .comment       0x00000000       0x31 build/components/libc/minilibc/ctype.o
 .comment       0x00000000       0x31 build/components/libc/minilibc/stdlib.o
 .comment       0x00000000       0x31 build/components/libc/minilibc/string.o
 .comment       0x00000000       0x31 build/components/libc/minilibc/time.o
 .comment       0x00000000       0x31 build/bsp/Libraries/CMSIS/CM3/DeviceSupport/ST/STM32F10x/system_stm32f10x.o
 .comment       0x00000000       0x31 build/bsp/Libraries/STM32F10x_StdPeriph_Driver/src/stm32f10x_rcc.o
 .comment       0x00000000       0x31 build/bsp/Libraries/STM32F10x_StdPeriph_Driver/src/stm32f10x_pwr.o
 .comment       0x00000000       0x31 build/bsp/Libraries/STM32F10x_StdPeriph_Driver/src/stm32f10x_bkp.o
 .comment       0x00000000       0x31 build/bsp/Libraries/STM32F10x_StdPeriph_Driver/src/stm32f10x_rtc.o
 .comment       0x00000000       0x31 build/bsp/Libraries/STM32F10x_StdPeriph_Driver/src/stm32f10x_gpio.o
 .comment       0x00000000       0x31 build/bsp/Libraries/STM32F10x_StdPeriph_Driver/src/stm32f10x_usart.o
 .comment       0x00000000       0x31 build/bsp/Libraries/STM32F10x_StdPeriph_Driver/src/stm32f10x_dma.o
 .comment       0x00000000       0x31 build/bsp/Libraries/STM32F10x_StdPeriph_Driver/src/misc.o

.ARM.attributes
                0x00000000       0x27
 .ARM.attributes
                0x00000000       0x33 build/bsp/application.o
 .ARM.attributes
                0x00000033       0x33 build/bsp/startup.o
 .ARM.attributes
                0x00000066       0x33 build/bsp/board.o
 .ARM.attributes
                0x00000099       0x33 build/bsp/stm32f10x_it.o
 .ARM.attributes
                0x000000cc       0x33 build/bsp/rtc.o
 .ARM.attributes
                0x000000ff       0x33 build/bsp/usart.o
 .ARM.attributes
                0x00000132       0x33 build/bsp/serial.o
 .ARM.attributes
                0x00000165       0x33 build/bsp/led.o
 .ARM.attributes
                0x00000198       0x33 build/src/clock.o
 .ARM.attributes
                0x000001cb       0x33 build/src/device.o
 .ARM.attributes
                0x000001fe       0x33 build/src/idle.o
 .ARM.attributes
                0x00000231       0x33 build/src/ipc.o
 .ARM.attributes
                0x00000264       0x33 build/src/irq.o
 .ARM.attributes
                0x00000297       0x33 build/src/kservice.o
 .ARM.attributes
                0x000002ca       0x33 build/src/mem.o
 .ARM.attributes
                0x000002fd       0x33 build/src/mempool.o
 .ARM.attributes
                0x00000330       0x33 build/src/object.o
 .ARM.attributes
                0x00000363       0x33 build/src/scheduler.o
 .ARM.attributes
                0x00000396       0x33 build/src/thread.o
 .ARM.attributes
                0x000003c9       0x33 build/src/timer.o
 .ARM.attributes
                0x000003fc       0x33 build/libcpu/arm/cortex-m3/cpuport.o
 .ARM.attributes
                0x0000042f       0x21 build/libcpu/arm/cortex-m3/context_gcc.o
 .ARM.attributes
                0x00000450       0x33 build/components/finsh/libfinsh.a(cmd.o)
 .ARM.attributes
                0x00000483       0x33 build/components/finsh/libfinsh.a(finsh_var.o)
 .ARM.attributes
                0x000004b6       0x33 build/components/finsh/libfinsh.a(finsh_vm.o)
 .ARM.attributes
                0x000004e9       0x33 build/components/finsh/libfinsh.a(shell.o)
 .ARM.attributes
                0x0000051c       0x33 build/components/finsh/libfinsh.a(symbol.o)
 .ARM.attributes
                0x0000054f       0x33 build/components/finsh/libfinsh.a(finsh_compiler.o)
 .ARM.attributes
                0x00000582       0x33 build/components/finsh/libfinsh.a(finsh_error.o)
 .ARM.attributes
                0x000005b5       0x33 build/components/finsh/libfinsh.a(finsh_init.o)
 .ARM.attributes
                0x000005e8       0x33 build/components/finsh/libfinsh.a(finsh_node.o)
 .ARM.attributes
                0x0000061b       0x33 build/components/finsh/libfinsh.a(finsh_ops.o)
 .ARM.attributes
                0x0000064e       0x33 build/components/finsh/libfinsh.a(finsh_parser.o)
 .ARM.attributes
                0x00000681       0x33 build/components/finsh/libfinsh.a(finsh_token.o)
 .ARM.attributes
                0x000006b4       0x33 build/components/finsh/libfinsh.a(finsh_heap.o)
 .ARM.attributes
                0x000006e7       0x33 build/components/libc/minilibc/ctype.o
 .ARM.attributes
                0x0000071a       0x33 build/components/libc/minilibc/stdlib.o
 .ARM.attributes
                0x0000074d       0x33 build/components/libc/minilibc/string.o
 .ARM.attributes
                0x00000780       0x33 build/components/libc/minilibc/time.o
 .ARM.attributes
                0x000007b3       0x33 build/bsp/Libraries/CMSIS/CM3/DeviceSupport/ST/STM32F10x/system_stm32f10x.o
 .ARM.attributes
                0x000007e6       0x33 build/bsp/Libraries/STM32F10x_StdPeriph_Driver/src/stm32f10x_rcc.o
 .ARM.attributes
                0x00000819       0x33 build/bsp/Libraries/STM32F10x_StdPeriph_Driver/src/stm32f10x_pwr.o
 .ARM.attributes
                0x0000084c       0x33 build/bsp/Libraries/STM32F10x_StdPeriph_Driver/src/stm32f10x_bkp.o
 .ARM.attributes
                0x0000087f       0x33 build/bsp/Libraries/STM32F10x_StdPeriph_Driver/src/stm32f10x_rtc.o
 .ARM.attributes
                0x000008b2       0x33 build/bsp/Libraries/STM32F10x_StdPeriph_Driver/src/stm32f10x_gpio.o
 .ARM.attributes
                0x000008e5       0x33 build/bsp/Libraries/STM32F10x_StdPeriph_Driver/src/stm32f10x_usart.o
 .ARM.attributes
                0x00000918       0x33 build/bsp/Libraries/STM32F10x_StdPeriph_Driver/src/stm32f10x_dma.o
 .ARM.attributes
                0x0000094b       0x33 build/bsp/Libraries/STM32F10x_StdPeriph_Driver/src/misc.o
 .ARM.attributes
                0x0000097e       0x21 build/bsp/Libraries/CMSIS/CM3/DeviceSupport/ST/STM32F10x/startup/gcc_ride7/startup_stm32f10x_hd.o

.debug
 *(.debug)

.line
 *(.line)

.debug_srcinfo
 *(.debug_srcinfo)

.debug_sfnames
 *(.debug_sfnames)

.debug_aranges  0x00000000     0x1698
 *(.debug_aranges)
 .debug_aranges
                0x00000000       0x30 build/bsp/application.o
 .debug_aranges
                0x00000030       0x30 build/bsp/startup.o
 .debug_aranges
                0x00000060       0x40 build/bsp/board.o
 .debug_aranges
                0x000000a0       0x70 build/bsp/stm32f10x_it.o
 .debug_aranges
                0x00000110       0x60 build/bsp/rtc.o
 .debug_aranges
                0x00000170       0x40 build/bsp/usart.o
 .debug_aranges
                0x000001b0       0x68 build/bsp/serial.o
 .debug_aranges
                0x00000218       0x38 build/bsp/led.o
 .debug_aranges
                0x00000250       0x40 build/src/clock.o
 .debug_aranges
                0x00000290       0x78 build/src/device.o
 .debug_aranges
                0x00000308       0x48 build/src/idle.o
 .debug_aranges
                0x00000350      0x180 build/src/ipc.o
 .debug_aranges
                0x000004d0       0x30 build/src/irq.o
 .debug_aranges
                0x00000500       0xf8 build/src/kservice.o
 .debug_aranges
                0x000005f8       0x68 build/src/mem.o
 .debug_aranges
                0x00000660       0x70 build/src/mempool.o
 .debug_aranges
                0x000006d0       0x90 build/src/object.o
 .debug_aranges
                0x00000760       0x80 build/src/scheduler.o
 .debug_aranges
                0x000007e0       0xb8 build/src/thread.o
 .debug_aranges
                0x00000898       0xa8 build/src/timer.o
 .debug_aranges
                0x00000940       0x30 build/libcpu/arm/cortex-m3/cpuport.o
 .debug_aranges
                0x00000970       0x20 build/libcpu/arm/cortex-m3/context_gcc.o
 .debug_aranges
                0x00000990       0xe8 build/components/finsh/libfinsh.a(cmd.o)
 .debug_aranges
                0x00000a78       0x48 build/components/finsh/libfinsh.a(finsh_var.o)
 .debug_aranges
                0x00000ac0       0x30 build/components/finsh/libfinsh.a(finsh_vm.o)
 .debug_aranges
                0x00000af0       0x80 build/components/finsh/libfinsh.a(shell.o)
 .debug_aranges
                0x00000b70       0x30 build/components/finsh/libfinsh.a(finsh_compiler.o)
 .debug_aranges
                0x00000ba0       0x38 build/components/finsh/libfinsh.a(finsh_error.o)
 .debug_aranges
                0x00000bd8       0x38 build/components/finsh/libfinsh.a(finsh_init.o)
 .debug_aranges
                0x00000c10       0x58 build/components/finsh/libfinsh.a(finsh_node.o)
 .debug_aranges
                0x00000c68      0x198 build/components/finsh/libfinsh.a(finsh_ops.o)
 .debug_aranges
                0x00000e00       0xb8 build/components/finsh/libfinsh.a(finsh_parser.o)
 .debug_aranges
                0x00000eb8       0x88 build/components/finsh/libfinsh.a(finsh_token.o)
 .debug_aranges
                0x00000f40       0x58 build/components/finsh/libfinsh.a(finsh_heap.o)
 .debug_aranges
                0x00000f98       0x30 build/components/libc/minilibc/ctype.o
 .debug_aranges
                0x00000fc8       0x40 build/components/libc/minilibc/stdlib.o
 .debug_aranges
                0x00001008       0xe0 build/components/libc/minilibc/string.o
 .debug_aranges
                0x000010e8       0x70 build/components/libc/minilibc/time.o
 .debug_aranges
                0x00001158       0x38 build/bsp/Libraries/CMSIS/CM3/DeviceSupport/ST/STM32F10x/system_stm32f10x.o
 .debug_aranges
                0x00001190      0x118 build/bsp/Libraries/STM32F10x_StdPeriph_Driver/src/stm32f10x_rcc.o
 .debug_aranges
                0x000012a8       0x70 build/bsp/Libraries/STM32F10x_StdPeriph_Driver/src/stm32f10x_pwr.o
 .debug_aranges
                0x00001318       0x78 build/bsp/Libraries/STM32F10x_StdPeriph_Driver/src/stm32f10x_bkp.o
 .debug_aranges
                0x00001390       0x88 build/bsp/Libraries/STM32F10x_StdPeriph_Driver/src/stm32f10x_rtc.o
 .debug_aranges
                0x00001418       0xa8 build/bsp/Libraries/STM32F10x_StdPeriph_Driver/src/stm32f10x_gpio.o
 .debug_aranges
                0x000014c0      0x100 build/bsp/Libraries/STM32F10x_StdPeriph_Driver/src/stm32f10x_usart.o
 .debug_aranges
                0x000015c0       0x70 build/bsp/Libraries/STM32F10x_StdPeriph_Driver/src/stm32f10x_dma.o
 .debug_aranges
                0x00001630       0x40 build/bsp/Libraries/STM32F10x_StdPeriph_Driver/src/misc.o
 .debug_aranges
                0x00001670       0x28 build/bsp/Libraries/CMSIS/CM3/DeviceSupport/ST/STM32F10x/startup/gcc_ride7/startup_stm32f10x_hd.o

.debug_pubnames
 *(.debug_pubnames)

.debug_info     0x00000000    0x15bb8
 *(.debug_info .gnu.linkonce.wi.*)
 .debug_info    0x00000000      0x405 build/bsp/application.o
 .debug_info    0x00000405      0x144 build/bsp/startup.o
 .debug_info    0x00000549      0x639 build/bsp/board.o
 .debug_info    0x00000b82      0x4b0 build/bsp/stm32f10x_it.o
 .debug_info    0x00001032      0x942 build/bsp/rtc.o
 .debug_info    0x00001974      0xbac build/bsp/usart.o
 .debug_info    0x00002520      0xca1 build/bsp/serial.o
 .debug_info    0x000031c1      0x382 build/bsp/led.o
 .debug_info    0x00003543      0x3fd build/src/clock.o
 .debug_info    0x00003940      0x9f3 build/src/device.o
 .debug_info    0x00004333      0x507 build/src/idle.o
 .debug_info    0x0000483a     0x1e5f build/src/ipc.o
 .debug_info    0x00006699       0xff build/src/irq.o
 .debug_info    0x00006798     0x1015 build/src/kservice.o
 .debug_info    0x000077ad      0x923 build/src/mem.o
 .debug_info    0x000080d0      0x92f build/src/mempool.o
 .debug_info    0x000089ff      0x718 build/src/object.o
 .debug_info    0x00009117      0x77f build/src/scheduler.o
 .debug_info    0x00009896      0xc24 build/src/thread.o
 .debug_info    0x0000a4ba      0x833 build/src/timer.o
 .debug_info    0x0000aced      0x4ef build/libcpu/arm/cortex-m3/cpuport.o
 .debug_info    0x0000b1dc       0x9e build/libcpu/arm/cortex-m3/context_gcc.o
 .debug_info    0x0000b27a     0x14cf build/components/finsh/libfinsh.a(cmd.o)
 .debug_info    0x0000c749      0x3c0 build/components/finsh/libfinsh.a(finsh_var.o)
 .debug_info    0x0000cb09      0x2d5 build/components/finsh/libfinsh.a(finsh_vm.o)
 .debug_info    0x0000cdde      0xe4f build/components/finsh/libfinsh.a(shell.o)
 .debug_info    0x0000dc2d      0x174 build/components/finsh/libfinsh.a(symbol.o)
 .debug_info    0x0000dda1      0x589 build/components/finsh/libfinsh.a(finsh_compiler.o)
 .debug_info    0x0000e32a      0x147 build/components/finsh/libfinsh.a(finsh_error.o)
 .debug_info    0x0000e471      0x497 build/components/finsh/libfinsh.a(finsh_init.o)
 .debug_info    0x0000e908      0x495 build/components/finsh/libfinsh.a(finsh_node.o)
 .debug_info    0x0000ed9d      0x5fe build/components/finsh/libfinsh.a(finsh_ops.o)
 .debug_info    0x0000f39b      0xbe8 build/components/finsh/libfinsh.a(finsh_parser.o)
 .debug_info    0x0000ff83      0x6d9 build/components/finsh/libfinsh.a(finsh_token.o)
 .debug_info    0x0001065c      0x41c build/components/finsh/libfinsh.a(finsh_heap.o)
 .debug_info    0x00010a78       0xe6 build/components/libc/minilibc/ctype.o
 .debug_info    0x00010b5e      0x19f build/components/libc/minilibc/stdlib.o
 .debug_info    0x00010cfd      0xa83 build/components/libc/minilibc/string.o
 .debug_info    0x00011780      0x83f build/components/libc/minilibc/time.o
 .debug_info    0x00011fbf      0x49a build/bsp/Libraries/CMSIS/CM3/DeviceSupport/ST/STM32F10x/system_stm32f10x.o
 .debug_info    0x00012459      0x91f build/bsp/Libraries/STM32F10x_StdPeriph_Driver/src/stm32f10x_rcc.o
 .debug_info    0x00012d78      0x479 build/bsp/Libraries/STM32F10x_StdPeriph_Driver/src/stm32f10x_pwr.o
 .debug_info    0x000131f1      0x897 build/bsp/Libraries/STM32F10x_StdPeriph_Driver/src/stm32f10x_bkp.o
 .debug_info    0x00013a88      0x488 build/bsp/Libraries/STM32F10x_StdPeriph_Driver/src/stm32f10x_rtc.o
 .debug_info    0x00013f10      0x74d build/bsp/Libraries/STM32F10x_StdPeriph_Driver/src/stm32f10x_gpio.o
 .debug_info    0x0001465d      0xa8a build/bsp/Libraries/STM32F10x_StdPeriph_Driver/src/stm32f10x_usart.o
 .debug_info    0x000150e7      0x4cb build/bsp/Libraries/STM32F10x_StdPeriph_Driver/src/stm32f10x_dma.o
 .debug_info    0x000155b2      0x559 build/bsp/Libraries/STM32F10x_StdPeriph_Driver/src/misc.o
 .debug_info    0x00015b0b       0xad build/bsp/Libraries/CMSIS/CM3/DeviceSupport/ST/STM32F10x/startup/gcc_ride7/startup_stm32f10x_hd.o

.debug_abbrev   0x00000000     0x48f8
 *(.debug_abbrev)
 .debug_abbrev  0x00000000      0x12d build/bsp/application.o
 .debug_abbrev  0x0000012d       0xca build/bsp/startup.o
 .debug_abbrev  0x000001f7      0x15c build/bsp/board.o
 .debug_abbrev  0x00000353      0x14a build/bsp/stm32f10x_it.o
 .debug_abbrev  0x0000049d      0x215 build/bsp/rtc.o
 .debug_abbrev  0x000006b2      0x1ab build/bsp/usart.o
 .debug_abbrev  0x0000085d      0x221 build/bsp/serial.o
 .debug_abbrev  0x00000a7e      0x173 build/bsp/led.o
 .debug_abbrev  0x00000bf1      0x146 build/src/clock.o
 .debug_abbrev  0x00000d37      0x1a8 build/src/device.o
 .debug_abbrev  0x00000edf      0x189 build/src/idle.o
 .debug_abbrev  0x00001068      0x1f1 build/src/ipc.o
 .debug_abbrev  0x00001259       0x8e build/src/irq.o
 .debug_abbrev  0x000012e7      0x23c build/src/kservice.o
 .debug_abbrev  0x00001523      0x1e8 build/src/mem.o
 .debug_abbrev  0x0000170b      0x20e build/src/mempool.o
 .debug_abbrev  0x00001919      0x1de build/src/object.o
 .debug_abbrev  0x00001af7      0x1bf build/src/scheduler.o
 .debug_abbrev  0x00001cb6      0x217 build/src/thread.o
 .debug_abbrev  0x00001ecd      0x23c build/src/timer.o
 .debug_abbrev  0x00002109      0x18a build/libcpu/arm/cortex-m3/cpuport.o
 .debug_abbrev  0x00002293       0x14 build/libcpu/arm/cortex-m3/context_gcc.o
 .debug_abbrev  0x000022a7      0x283 build/components/finsh/libfinsh.a(cmd.o)
 .debug_abbrev  0x0000252a      0x164 build/components/finsh/libfinsh.a(finsh_var.o)
 .debug_abbrev  0x0000268e      0x142 build/components/finsh/libfinsh.a(finsh_vm.o)
 .debug_abbrev  0x000027d0      0x2cc build/components/finsh/libfinsh.a(shell.o)
 .debug_abbrev  0x00002a9c       0x9a build/components/finsh/libfinsh.a(symbol.o)
 .debug_abbrev  0x00002b36      0x226 build/components/finsh/libfinsh.a(finsh_compiler.o)
 .debug_abbrev  0x00002d5c       0xba build/components/finsh/libfinsh.a(finsh_error.o)
 .debug_abbrev  0x00002e16      0x177 build/components/finsh/libfinsh.a(finsh_init.o)
 .debug_abbrev  0x00002f8d      0x195 build/components/finsh/libfinsh.a(finsh_node.o)
 .debug_abbrev  0x00003122      0x128 build/components/finsh/libfinsh.a(finsh_ops.o)
 .debug_abbrev  0x0000324a      0x225 build/components/finsh/libfinsh.a(finsh_parser.o)
 .debug_abbrev  0x0000346f      0x206 build/components/finsh/libfinsh.a(finsh_token.o)
 .debug_abbrev  0x00003675      0x177 build/components/finsh/libfinsh.a(finsh_heap.o)
 .debug_abbrev  0x000037ec       0x6b build/components/libc/minilibc/ctype.o
 .debug_abbrev  0x00003857       0xd3 build/components/libc/minilibc/stdlib.o
 .debug_abbrev  0x0000392a      0x169 build/components/libc/minilibc/string.o
 .debug_abbrev  0x00003a93      0x181 build/components/libc/minilibc/time.o
 .debug_abbrev  0x00003c14      0x16f build/bsp/Libraries/CMSIS/CM3/DeviceSupport/ST/STM32F10x/system_stm32f10x.o
 .debug_abbrev  0x00003d83      0x193 build/bsp/Libraries/STM32F10x_StdPeriph_Driver/src/stm32f10x_rcc.o
 .debug_abbrev  0x00003f16      0x186 build/bsp/Libraries/STM32F10x_StdPeriph_Driver/src/stm32f10x_pwr.o
 .debug_abbrev  0x0000409c      0x158 build/bsp/Libraries/STM32F10x_StdPeriph_Driver/src/stm32f10x_bkp.o
 .debug_abbrev  0x000041f4      0x168 build/bsp/Libraries/STM32F10x_StdPeriph_Driver/src/stm32f10x_rtc.o
 .debug_abbrev  0x0000435c      0x1a6 build/bsp/Libraries/STM32F10x_StdPeriph_Driver/src/stm32f10x_gpio.o
 .debug_abbrev  0x00004502      0x15d build/bsp/Libraries/STM32F10x_StdPeriph_Driver/src/stm32f10x_usart.o
 .debug_abbrev  0x0000465f      0x150 build/bsp/Libraries/STM32F10x_StdPeriph_Driver/src/stm32f10x_dma.o
 .debug_abbrev  0x000047af      0x137 build/bsp/Libraries/STM32F10x_StdPeriph_Driver/src/misc.o
 .debug_abbrev  0x000048e6       0x12 build/bsp/Libraries/CMSIS/CM3/DeviceSupport/ST/STM32F10x/startup/gcc_ride7/startup_stm32f10x_hd.o

.debug_line     0x00000000     0x954e
 *(.debug_line)
 .debug_line    0x00000000       0xc2 build/bsp/application.o
 .debug_line    0x000000c2      0x160 build/bsp/startup.o
 .debug_line    0x00000222      0x199 build/bsp/board.o
 .debug_line    0x000003bb      0x161 build/bsp/stm32f10x_it.o
 .debug_line    0x0000051c      0x2a4 build/bsp/rtc.o
 .debug_line    0x000007c0      0x1f9 build/bsp/usart.o
 .debug_line    0x000009b9      0x339 build/bsp/serial.o
 .debug_line    0x00000cf2      0x1ef build/bsp/led.o
 .debug_line    0x00000ee1       0xe3 build/src/clock.o
 .debug_line    0x00000fc4      0x258 build/src/device.o
 .debug_line    0x0000121c      0x13d build/src/idle.o
 .debug_line    0x00001359      0xaaf build/src/ipc.o
 .debug_line    0x00001e08       0xb9 build/src/irq.o
 .debug_line    0x00001ec1      0x5cf build/src/kservice.o
 .debug_line    0x00002490      0x3a4 build/src/mem.o
 .debug_line    0x00002834      0x2a3 build/src/mempool.o
 .debug_line    0x00002ad7      0x281 build/src/object.o
 .debug_line    0x00002d58      0x238 build/src/scheduler.o
 .debug_line    0x00002f90      0x370 build/src/thread.o
 .debug_line    0x00003300      0x2da build/src/timer.o
 .debug_line    0x000035da       0xf2 build/libcpu/arm/cortex-m3/cpuport.o
 .debug_line    0x000036cc       0xcc build/libcpu/arm/cortex-m3/context_gcc.o
 .debug_line    0x00003798      0x48d build/components/finsh/libfinsh.a(cmd.o)
 .debug_line    0x00003c25      0x1d5 build/components/finsh/libfinsh.a(finsh_var.o)
 .debug_line    0x00003dfa      0x173 build/components/finsh/libfinsh.a(finsh_vm.o)
 .debug_line    0x00003f6d      0x323 build/components/finsh/libfinsh.a(shell.o)
 .debug_line    0x00004290       0xe6 build/components/finsh/libfinsh.a(symbol.o)
 .debug_line    0x00004376      0x578 build/components/finsh/libfinsh.a(finsh_compiler.o)
 .debug_line    0x000048ee      0x126 build/components/finsh/libfinsh.a(finsh_error.o)
 .debug_line    0x00004a14      0x157 build/components/finsh/libfinsh.a(finsh_init.o)
 .debug_line    0x00004b6b      0x1d6 build/components/finsh/libfinsh.a(finsh_node.o)
 .debug_line    0x00004d41      0x4f9 build/components/finsh/libfinsh.a(finsh_ops.o)
 .debug_line    0x0000523a      0x4ff build/components/finsh/libfinsh.a(finsh_parser.o)
 .debug_line    0x00005739      0x402 build/components/finsh/libfinsh.a(finsh_token.o)
 .debug_line    0x00005b3b      0x240 build/components/finsh/libfinsh.a(finsh_heap.o)
 .debug_line    0x00005d7b       0xa7 build/components/libc/minilibc/ctype.o
 .debug_line    0x00005e22      0x167 build/components/libc/minilibc/stdlib.o
 .debug_line    0x00005f89      0x566 build/components/libc/minilibc/string.o
 .debug_line    0x000064ef      0x275 build/components/libc/minilibc/time.o
 .debug_line    0x00006764      0x1c2 build/bsp/Libraries/CMSIS/CM3/DeviceSupport/ST/STM32F10x/system_stm32f10x.o
 .debug_line    0x00006926      0x6fa build/bsp/Libraries/STM32F10x_StdPeriph_Driver/src/stm32f10x_rcc.o
 .debug_line    0x00007020      0x2b7 build/bsp/Libraries/STM32F10x_StdPeriph_Driver/src/stm32f10x_pwr.o
 .debug_line    0x000072d7      0x418 build/bsp/Libraries/STM32F10x_StdPeriph_Driver/src/stm32f10x_bkp.o
 .debug_line    0x000076ef      0x2d9 build/bsp/Libraries/STM32F10x_StdPeriph_Driver/src/stm32f10x_rtc.o
 .debug_line    0x000079c8      0x835 build/bsp/Libraries/STM32F10x_StdPeriph_Driver/src/stm32f10x_gpio.o
 .debug_line    0x000081fd      0x985 build/bsp/Libraries/STM32F10x_StdPeriph_Driver/src/stm32f10x_usart.o
 .debug_line    0x00008b82      0x6c8 build/bsp/Libraries/STM32F10x_StdPeriph_Driver/src/stm32f10x_dma.o
 .debug_line    0x0000924a      0x251 build/bsp/Libraries/STM32F10x_StdPeriph_Driver/src/misc.o
 .debug_line    0x0000949b       0xb3 build/bsp/Libraries/CMSIS/CM3/DeviceSupport/ST/STM32F10x/startup/gcc_ride7/startup_stm32f10x_hd.o

.debug_frame    0x00000000     0x46f8
 *(.debug_frame)
 .debug_frame   0x00000000       0x6c build/bsp/application.o
 .debug_frame   0x0000006c       0x68 build/bsp/startup.o
 .debug_frame   0x000000d4       0xa0 build/bsp/board.o
 .debug_frame   0x00000174      0x120 build/bsp/stm32f10x_it.o
 .debug_frame   0x00000294      0x124 build/bsp/rtc.o
 .debug_frame   0x000003b8       0xa4 build/bsp/usart.o
 .debug_frame   0x0000045c      0x148 build/bsp/serial.o
 .debug_frame   0x000005a4       0x90 build/bsp/led.o
 .debug_frame   0x00000634       0x9c build/src/clock.o
 .debug_frame   0x000006d0      0x190 build/src/device.o
 .debug_frame   0x00000860       0xc4 build/src/idle.o
 .debug_frame   0x00000924      0x5ac build/src/ipc.o
 .debug_frame   0x00000ed0       0x68 build/src/irq.o
 .debug_frame   0x00000f38      0x378 build/src/kservice.o
 .debug_frame   0x000012b0      0x140 build/src/mem.o
 .debug_frame   0x000013f0      0x15c build/src/mempool.o
 .debug_frame   0x0000154c      0x1c8 build/src/object.o
 .debug_frame   0x00001714      0x19c build/src/scheduler.o
 .debug_frame   0x000018b0      0x278 build/src/thread.o
 .debug_frame   0x00001b28      0x22c build/src/timer.o
 .debug_frame   0x00001d54       0x6c build/libcpu/arm/cortex-m3/cpuport.o
 .debug_frame   0x00001dc0      0x330 build/components/finsh/libfinsh.a(cmd.o)
 .debug_frame   0x000020f0       0xcc build/components/finsh/libfinsh.a(finsh_var.o)
 .debug_frame   0x000021bc       0x70 build/components/finsh/libfinsh.a(finsh_vm.o)
 .debug_frame   0x0000222c      0x1ac build/components/finsh/libfinsh.a(shell.o)
 .debug_frame   0x000023d8       0x70 build/components/finsh/libfinsh.a(finsh_compiler.o)
 .debug_frame   0x00002448       0x78 build/components/finsh/libfinsh.a(finsh_error.o)
 .debug_frame   0x000024c0       0x88 build/components/finsh/libfinsh.a(finsh_init.o)
 .debug_frame   0x00002548      0x108 build/components/finsh/libfinsh.a(finsh_node.o)
 .debug_frame   0x00002650      0x4c0 build/components/finsh/libfinsh.a(finsh_ops.o)
 .debug_frame   0x00002b10      0x290 build/components/finsh/libfinsh.a(finsh_parser.o)
 .debug_frame   0x00002da0      0x1c8 build/components/finsh/libfinsh.a(finsh_token.o)
 .debug_frame   0x00002f68       0xfc build/components/finsh/libfinsh.a(finsh_heap.o)
 .debug_frame   0x00003064       0x64 build/components/libc/minilibc/ctype.o
 .debug_frame   0x000030c8       0xac build/components/libc/minilibc/stdlib.o
 .debug_frame   0x00003174      0x328 build/components/libc/minilibc/string.o
 .debug_frame   0x0000349c      0x170 build/components/libc/minilibc/time.o
 .debug_frame   0x0000360c       0x80 build/bsp/Libraries/CMSIS/CM3/DeviceSupport/ST/STM32F10x/system_stm32f10x.o
 .debug_frame   0x0000368c      0x3f4 build/bsp/Libraries/STM32F10x_StdPeriph_Driver/src/stm32f10x_rcc.o
 .debug_frame   0x00003a80      0x158 build/bsp/Libraries/STM32F10x_StdPeriph_Driver/src/stm32f10x_pwr.o
 .debug_frame   0x00003bd8      0x16c build/bsp/Libraries/STM32F10x_StdPeriph_Driver/src/stm32f10x_bkp.o
 .debug_frame   0x00003d44      0x1a8 build/bsp/Libraries/STM32F10x_StdPeriph_Driver/src/stm32f10x_rtc.o
 .debug_frame   0x00003eec      0x248 build/bsp/Libraries/STM32F10x_StdPeriph_Driver/src/stm32f10x_gpio.o
 .debug_frame   0x00004134      0x3a8 build/bsp/Libraries/STM32F10x_StdPeriph_Driver/src/stm32f10x_usart.o
 .debug_frame   0x000044dc      0x16c build/bsp/Libraries/STM32F10x_StdPeriph_Driver/src/stm32f10x_dma.o
 .debug_frame   0x00004648       0xb0 build/bsp/Libraries/STM32F10x_StdPeriph_Driver/src/misc.o

.debug_str      0x00000000     0x5391
 *(.debug_str)
 .debug_str     0x00000000      0x20f build/bsp/application.o
                                0x295 (size before relaxing)
 .debug_str     0x0000020f       0x6f build/bsp/startup.o
                                0x13c (size before relaxing)
 .debug_str     0x0000027e      0x4f7 build/bsp/board.o
                                0x5ff (size before relaxing)
 .debug_str     0x00000775      0x278 build/bsp/stm32f10x_it.o
                                0x428 (size before relaxing)
 .debug_str     0x000009ed      0x1bb build/bsp/rtc.o
                                0x57e (size before relaxing)
 .debug_str     0x00000ba8      0x499 build/bsp/usart.o
                                0xc12 (size before relaxing)
 .debug_str     0x00001041       0xd0 build/bsp/serial.o
                                0x653 (size before relaxing)
 .debug_str     0x00001111       0x66 build/bsp/led.o
                                0x2dc (size before relaxing)
 .debug_str     0x00001177       0x8c build/src/clock.o
                                0x2b1 (size before relaxing)
 .debug_str     0x00001203      0x271 build/src/device.o
                                0x5c0 (size before relaxing)
 .debug_str     0x00001474       0xe9 build/src/idle.o
                                0x332 (size before relaxing)
 .debug_str     0x0000155d      0x464 build/src/ipc.o
                                0x812 (size before relaxing)
 .debug_str     0x000019c1       0x7a build/src/irq.o
                                0x135 (size before relaxing)
 .debug_str     0x00001a3b      0x270 build/src/kservice.o
                                0x6b0 (size before relaxing)
 .debug_str     0x00001cab      0x1a5 build/src/mem.o
                                0x359 (size before relaxing)
 .debug_str     0x00001e50       0xfa build/src/mempool.o
                                0x511 (size before relaxing)
 .debug_str     0x00001f4a      0x171 build/src/object.o
                                0x49b (size before relaxing)
 .debug_str     0x000020bb      0x1a6 build/src/scheduler.o
                                0x484 (size before relaxing)
 .debug_str     0x00002261      0x134 build/src/thread.o
                                0x5a9 (size before relaxing)
 .debug_str     0x00002395      0x166 build/src/timer.o
                                0x491 (size before relaxing)
 .debug_str     0x000024fb       0xf2 build/libcpu/arm/cortex-m3/cpuport.o
                                0x336 (size before relaxing)
 .debug_str     0x000025ed      0x56a build/components/finsh/libfinsh.a(cmd.o)
                                0xd79 (size before relaxing)
 .debug_str     0x00002b57       0xf8 build/components/finsh/libfinsh.a(finsh_var.o)
                                0x33b (size before relaxing)
 .debug_str     0x00002c4f       0xc0 build/components/finsh/libfinsh.a(finsh_vm.o)
                                0x225 (size before relaxing)
 .debug_str     0x00002d0f      0x296 build/components/finsh/libfinsh.a(shell.o)
                                0x7ff (size before relaxing)
 .debug_str     0x00002fa5       0x3c build/components/finsh/libfinsh.a(symbol.o)
                                0x178 (size before relaxing)
 .debug_str     0x00002fe1       0xbf build/components/finsh/libfinsh.a(finsh_compiler.o)
                                0x36c (size before relaxing)
 .debug_str     0x000030a0       0xa7 build/components/finsh/libfinsh.a(finsh_error.o)
                                0x15e (size before relaxing)
 .debug_str     0x00003147       0x76 build/components/finsh/libfinsh.a(finsh_init.o)
                                0x261 (size before relaxing)
 .debug_str     0x000031bd       0xf3 build/components/finsh/libfinsh.a(finsh_node.o)
                                0x265 (size before relaxing)
 .debug_str     0x000032b0      0x2b7 build/components/finsh/libfinsh.a(finsh_ops.o)
                                0x3d1 (size before relaxing)
 .debug_str     0x00003567      0x4ff build/components/finsh/libfinsh.a(finsh_parser.o)
                                0x7f0 (size before relaxing)
 .debug_str     0x00003a66      0x148 build/components/finsh/libfinsh.a(finsh_token.o)
                                0x592 (size before relaxing)
 .debug_str     0x00003bae      0x116 build/components/finsh/libfinsh.a(finsh_heap.o)
                                0x37b (size before relaxing)
 .debug_str     0x00003cc4       0x53 build/components/libc/minilibc/ctype.o
                                 0xfb (size before relaxing)
 .debug_str     0x00003d17       0x51 build/components/libc/minilibc/stdlib.o
                                0x137 (size before relaxing)
 .debug_str     0x00003d68      0x12e build/components/libc/minilibc/string.o
                                0x2b0 (size before relaxing)
 .debug_str     0x00003e96       0xfa build/components/libc/minilibc/time.o
                                0x48e (size before relaxing)
 .debug_str     0x00003f90      0x10d build/bsp/Libraries/CMSIS/CM3/DeviceSupport/ST/STM32F10x/system_stm32f10x.o
                                0x293 (size before relaxing)
 .debug_str     0x0000409d      0x3fa build/bsp/Libraries/STM32F10x_StdPeriph_Driver/src/stm32f10x_rcc.o
                                0x5c7 (size before relaxing)
 .debug_str     0x00004497      0x118 build/bsp/Libraries/STM32F10x_StdPeriph_Driver/src/stm32f10x_pwr.o
                                0x2bf (size before relaxing)
 .debug_str     0x000045af      0x3ae build/bsp/Libraries/STM32F10x_StdPeriph_Driver/src/stm32f10x_bkp.o
                                0x562 (size before relaxing)
 .debug_str     0x0000495d      0x190 build/bsp/Libraries/STM32F10x_StdPeriph_Driver/src/stm32f10x_rtc.o
                                0x34f (size before relaxing)
 .debug_str     0x00004aed      0x257 build/bsp/Libraries/STM32F10x_StdPeriph_Driver/src/stm32f10x_gpio.o
                                0x4c6 (size before relaxing)
 .debug_str     0x00004d44      0x35a build/bsp/Libraries/STM32F10x_StdPeriph_Driver/src/stm32f10x_usart.o
                                0x63d (size before relaxing)
 .debug_str     0x0000509e      0x1f0 build/bsp/Libraries/STM32F10x_StdPeriph_Driver/src/stm32f10x_dma.o
                                0x376 (size before relaxing)
 .debug_str     0x0000528e      0x103 build/bsp/Libraries/STM32F10x_StdPeriph_Driver/src/misc.o
                                0x364 (size before relaxing)

.debug_loc      0x00000000     0x7918
 *(.debug_loc)
 .debug_loc     0x00000000       0xa8 build/bsp/application.o
 .debug_loc     0x000000a8       0x90 build/bsp/startup.o
 .debug_loc     0x00000138       0xf4 build/bsp/board.o
 .debug_loc     0x0000022c      0x1e4 build/bsp/stm32f10x_it.o
 .debug_loc     0x00000410      0x1ec build/bsp/rtc.o
 .debug_loc     0x000005fc      0x100 build/bsp/usart.o
 .debug_loc     0x000006fc      0x230 build/bsp/serial.o
 .debug_loc     0x0000092c       0xe0 build/bsp/led.o
 .debug_loc     0x00000a0c      0x100 build/src/clock.o
 .debug_loc     0x00000b0c      0x2a0 build/src/device.o
 .debug_loc     0x00000dac      0x150 build/src/idle.o
 .debug_loc     0x00000efc      0x9d8 build/src/ipc.o
 .debug_loc     0x000018d4       0x9c build/src/irq.o
 .debug_loc     0x00001970      0x63c build/src/kservice.o
 .debug_loc     0x00001fac      0x224 build/src/mem.o
 .debug_loc     0x000021d0      0x268 build/src/mempool.o
 .debug_loc     0x00002438      0x33c build/src/object.o
 .debug_loc     0x00002774      0x2a8 build/src/scheduler.o
 .debug_loc     0x00002a1c      0x454 build/src/thread.o
 .debug_loc     0x00002e70      0x3cc build/src/timer.o
 .debug_loc     0x0000323c       0xa8 build/libcpu/arm/cortex-m3/cpuport.o
 .debug_loc     0x000032e4      0x52e build/components/finsh/libfinsh.a(cmd.o)
 .debug_loc     0x00003812      0x144 build/components/finsh/libfinsh.a(finsh_var.o)
 .debug_loc     0x00003956       0xa8 build/components/finsh/libfinsh.a(finsh_vm.o)
 .debug_loc     0x000039fe      0x2d8 build/components/finsh/libfinsh.a(shell.o)
 .debug_loc     0x00003cd6       0xa8 build/components/finsh/libfinsh.a(finsh_compiler.o)
 .debug_loc     0x00003d7e       0xc8 build/components/finsh/libfinsh.a(finsh_error.o)
 .debug_loc     0x00003e46       0xd4 build/components/finsh/libfinsh.a(finsh_init.o)
 .debug_loc     0x00003f1a      0x1b4 build/components/finsh/libfinsh.a(finsh_node.o)
 .debug_loc     0x000040ce      0x896 build/components/finsh/libfinsh.a(finsh_ops.o)
 .debug_loc     0x00004964      0x462 build/components/finsh/libfinsh.a(finsh_parser.o)
 .debug_loc     0x00004dc6      0x314 build/components/finsh/libfinsh.a(finsh_token.o)
 .debug_loc     0x000050da      0x1b4 build/components/finsh/libfinsh.a(finsh_heap.o)
 .debug_loc     0x0000528e       0xa8 build/components/libc/minilibc/ctype.o
 .debug_loc     0x00005336      0x118 build/components/libc/minilibc/stdlib.o
 .debug_loc     0x0000544e      0x586 build/components/libc/minilibc/string.o
 .debug_loc     0x000059d4      0x268 build/components/libc/minilibc/time.o
 .debug_loc     0x00005c3c       0xc8 build/bsp/Libraries/CMSIS/CM3/DeviceSupport/ST/STM32F10x/system_stm32f10x.o
 .debug_loc     0x00005d04      0x6dc build/bsp/Libraries/STM32F10x_StdPeriph_Driver/src/stm32f10x_rcc.o
 .debug_loc     0x000063e0      0x238 build/bsp/Libraries/STM32F10x_StdPeriph_Driver/src/stm32f10x_pwr.o
 .debug_loc     0x00006618      0x264 build/bsp/Libraries/STM32F10x_StdPeriph_Driver/src/stm32f10x_bkp.o
 .debug_loc     0x0000687c      0x2e0 build/bsp/Libraries/STM32F10x_StdPeriph_Driver/src/stm32f10x_rtc.o
 .debug_loc     0x00006b5c      0x3e4 build/bsp/Libraries/STM32F10x_StdPeriph_Driver/src/stm32f10x_gpio.o
 .debug_loc     0x00006f40      0x658 build/bsp/Libraries/STM32F10x_StdPeriph_Driver/src/stm32f10x_usart.o
 .debug_loc     0x00007598      0x268 build/bsp/Libraries/STM32F10x_StdPeriph_Driver/src/stm32f10x_dma.o
 .debug_loc     0x00007800      0x118 build/bsp/Libraries/STM32F10x_StdPeriph_Driver/src/misc.o

.debug_macinfo
 *(.debug_macinfo)

.debug_weaknames
 *(.debug_weaknames)

.debug_funcnames
 *(.debug_funcnames)

.debug_typenames
 *(.debug_typenames)

.debug_varnames
 *(.debug_varnames)
OUTPUT(rtthread-stm32.axf elf32-littlearm)

.debug_ranges   0x00000000     0x13f8
 .debug_ranges  0x00000000       0x20 build/bsp/application.o
 .debug_ranges  0x00000020       0x20 build/bsp/startup.o
 .debug_ranges  0x00000040       0x30 build/bsp/board.o
 .debug_ranges  0x00000070       0x60 build/bsp/stm32f10x_it.o
 .debug_ranges  0x000000d0       0x50 build/bsp/rtc.o
 .debug_ranges  0x00000120       0x30 build/bsp/usart.o
 .debug_ranges  0x00000150       0x58 build/bsp/serial.o
 .debug_ranges  0x000001a8       0x28 build/bsp/led.o
 .debug_ranges  0x000001d0       0x30 build/src/clock.o
 .debug_ranges  0x00000200       0x68 build/src/device.o
 .debug_ranges  0x00000268       0x38 build/src/idle.o
 .debug_ranges  0x000002a0      0x170 build/src/ipc.o
 .debug_ranges  0x00000410       0x20 build/src/irq.o
 .debug_ranges  0x00000430       0xe8 build/src/kservice.o
 .debug_ranges  0x00000518       0x58 build/src/mem.o
 .debug_ranges  0x00000570       0x60 build/src/mempool.o
 .debug_ranges  0x000005d0       0x80 build/src/object.o
 .debug_ranges  0x00000650       0x70 build/src/scheduler.o
 .debug_ranges  0x000006c0       0xa8 build/src/thread.o
 .debug_ranges  0x00000768       0x98 build/src/timer.o
 .debug_ranges  0x00000800       0x20 build/libcpu/arm/cortex-m3/cpuport.o
 .debug_ranges  0x00000820       0xd8 build/components/finsh/libfinsh.a(cmd.o)
 .debug_ranges  0x000008f8       0x38 build/components/finsh/libfinsh.a(finsh_var.o)
 .debug_ranges  0x00000930       0x20 build/components/finsh/libfinsh.a(finsh_vm.o)
 .debug_ranges  0x00000950       0x70 build/components/finsh/libfinsh.a(shell.o)
 .debug_ranges  0x000009c0       0x70 build/components/finsh/libfinsh.a(finsh_compiler.o)
 .debug_ranges  0x00000a30       0x28 build/components/finsh/libfinsh.a(finsh_error.o)
 .debug_ranges  0x00000a58       0x28 build/components/finsh/libfinsh.a(finsh_init.o)
 .debug_ranges  0x00000a80       0x48 build/components/finsh/libfinsh.a(finsh_node.o)
 .debug_ranges  0x00000ac8      0x188 build/components/finsh/libfinsh.a(finsh_ops.o)
 .debug_ranges  0x00000c50       0xa8 build/components/finsh/libfinsh.a(finsh_parser.o)
 .debug_ranges  0x00000cf8       0x78 build/components/finsh/libfinsh.a(finsh_token.o)
 .debug_ranges  0x00000d70       0x48 build/components/finsh/libfinsh.a(finsh_heap.o)
 .debug_ranges  0x00000db8       0x20 build/components/libc/minilibc/ctype.o
 .debug_ranges  0x00000dd8       0x30 build/components/libc/minilibc/stdlib.o
 .debug_ranges  0x00000e08       0xd0 build/components/libc/minilibc/string.o
 .debug_ranges  0x00000ed8       0x78 build/components/libc/minilibc/time.o
 .debug_ranges  0x00000f50       0x28 build/bsp/Libraries/CMSIS/CM3/DeviceSupport/ST/STM32F10x/system_stm32f10x.o
 .debug_ranges  0x00000f78      0x108 build/bsp/Libraries/STM32F10x_StdPeriph_Driver/src/stm32f10x_rcc.o
 .debug_ranges  0x00001080       0x60 build/bsp/Libraries/STM32F10x_StdPeriph_Driver/src/stm32f10x_pwr.o
 .debug_ranges  0x000010e0       0x68 build/bsp/Libraries/STM32F10x_StdPeriph_Driver/src/stm32f10x_bkp.o
 .debug_ranges  0x00001148       0x78 build/bsp/Libraries/STM32F10x_StdPeriph_Driver/src/stm32f10x_rtc.o
 .debug_ranges  0x000011c0       0x98 build/bsp/Libraries/STM32F10x_StdPeriph_Driver/src/stm32f10x_gpio.o
 .debug_ranges  0x00001258       0xf0 build/bsp/Libraries/STM32F10x_StdPeriph_Driver/src/stm32f10x_usart.o
 .debug_ranges  0x00001348       0x60 build/bsp/Libraries/STM32F10x_StdPeriph_Driver/src/stm32f10x_dma.o
 .debug_ranges  0x000013a8       0x30 build/bsp/Libraries/STM32F10x_StdPeriph_Driver/src/misc.o
 .debug_ranges  0x000013d8       0x20 build/bsp/Libraries/CMSIS/CM3/DeviceSupport/ST/STM32F10x/startup/gcc_ride7/startup_stm32f10x_hd.o

Cross Reference Table

Symbol                                            File
ADC1_2_IRQHandler                                 build/bsp/Libraries/CMSIS/CM3/DeviceSupport/ST/STM32F10x/startup/gcc_ride7/startup_stm32f10x_hd.o
ADC3_IRQHandler                                   build/bsp/Libraries/CMSIS/CM3/DeviceSupport/ST/STM32F10x/startup/gcc_ride7/startup_stm32f10x_hd.o
ADC_AnalogWatchdogCmd                             build/bsp/Libraries/STM32F10x_StdPeriph_Driver/src/stm32f10x_adc.o
ADC_AnalogWatchdogSingleChannelConfig             build/bsp/Libraries/STM32F10x_StdPeriph_Driver/src/stm32f10x_adc.o
ADC_AnalogWatchdogThresholdsConfig                build/bsp/Libraries/STM32F10x_StdPeriph_Driver/src/stm32f10x_adc.o
ADC_AutoInjectedConvCmd                           build/bsp/Libraries/STM32F10x_StdPeriph_Driver/src/stm32f10x_adc.o
ADC_ClearFlag                                     build/bsp/Libraries/STM32F10x_StdPeriph_Driver/src/stm32f10x_adc.o
ADC_ClearITPendingBit                             build/bsp/Libraries/STM32F10x_StdPeriph_Driver/src/stm32f10x_adc.o
ADC_Cmd                                           build/bsp/Libraries/STM32F10x_StdPeriph_Driver/src/stm32f10x_adc.o
ADC_DMACmd                                        build/bsp/Libraries/STM32F10x_StdPeriph_Driver/src/stm32f10x_adc.o
ADC_DeInit                                        build/bsp/Libraries/STM32F10x_StdPeriph_Driver/src/stm32f10x_adc.o
ADC_DiscModeChannelCountConfig                    build/bsp/Libraries/STM32F10x_StdPeriph_Driver/src/stm32f10x_adc.o
ADC_DiscModeCmd                                   build/bsp/Libraries/STM32F10x_StdPeriph_Driver/src/stm32f10x_adc.o
ADC_ExternalTrigConvCmd                           build/bsp/Libraries/STM32F10x_StdPeriph_Driver/src/stm32f10x_adc.o
ADC_ExternalTrigInjectedConvCmd                   build/bsp/Libraries/STM32F10x_StdPeriph_Driver/src/stm32f10x_adc.o
ADC_ExternalTrigInjectedConvConfig                build/bsp/Libraries/STM32F10x_StdPeriph_Driver/src/stm32f10x_adc.o
ADC_GetCalibrationStatus                          build/bsp/Libraries/STM32F10x_StdPeriph_Driver/src/stm32f10x_adc.o
ADC_GetConversionValue                            build/bsp/Libraries/STM32F10x_StdPeriph_Driver/src/stm32f10x_adc.o
ADC_GetDualModeConversionValue                    build/bsp/Libraries/STM32F10x_StdPeriph_Driver/src/stm32f10x_adc.o
ADC_GetFlagStatus                                 build/bsp/Libraries/STM32F10x_StdPeriph_Driver/src/stm32f10x_adc.o
ADC_GetITStatus                                   build/bsp/Libraries/STM32F10x_StdPeriph_Driver/src/stm32f10x_adc.o
ADC_GetInjectedConversionValue                    build/bsp/Libraries/STM32F10x_StdPeriph_Driver/src/stm32f10x_adc.o
ADC_GetResetCalibrationStatus                     build/bsp/Libraries/STM32F10x_StdPeriph_Driver/src/stm32f10x_adc.o
ADC_GetSoftwareStartConvStatus                    build/bsp/Libraries/STM32F10x_StdPeriph_Driver/src/stm32f10x_adc.o
ADC_GetSoftwareStartInjectedConvCmdStatus         build/bsp/Libraries/STM32F10x_StdPeriph_Driver/src/stm32f10x_adc.o
ADC_ITConfig                                      build/bsp/Libraries/STM32F10x_StdPeriph_Driver/src/stm32f10x_adc.o
ADC_Init                                          build/bsp/Libraries/STM32F10x_StdPeriph_Driver/src/stm32f10x_adc.o
ADC_InjectedChannelConfig                         build/bsp/Libraries/STM32F10x_StdPeriph_Driver/src/stm32f10x_adc.o
ADC_InjectedDiscModeCmd                           build/bsp/Libraries/STM32F10x_StdPeriph_Driver/src/stm32f10x_adc.o
ADC_InjectedSequencerLengthConfig                 build/bsp/Libraries/STM32F10x_StdPeriph_Driver/src/stm32f10x_adc.o
ADC_RegularChannelConfig                          build/bsp/Libraries/STM32F10x_StdPeriph_Driver/src/stm32f10x_adc.o
ADC_ResetCalibration                              build/bsp/Libraries/STM32F10x_StdPeriph_Driver/src/stm32f10x_adc.o
ADC_SetInjectedOffset                             build/bsp/Libraries/STM32F10x_StdPeriph_Driver/src/stm32f10x_adc.o
ADC_SoftwareStartConvCmd                          build/bsp/Libraries/STM32F10x_StdPeriph_Driver/src/stm32f10x_adc.o
ADC_SoftwareStartInjectedConvCmd                  build/bsp/Libraries/STM32F10x_StdPeriph_Driver/src/stm32f10x_adc.o
ADC_StartCalibration                              build/bsp/Libraries/STM32F10x_StdPeriph_Driver/src/stm32f10x_adc.o
ADC_StructInit                                    build/bsp/Libraries/STM32F10x_StdPeriph_Driver/src/stm32f10x_adc.o
ADC_TempSensorVrefintCmd                          build/bsp/Libraries/STM32F10x_StdPeriph_Driver/src/stm32f10x_adc.o
AHBPrescTable                                     build/bsp/Libraries/CMSIS/CM3/DeviceSupport/ST/STM32F10x/system_stm32f10x.o
BKP_ClearFlag                                     build/bsp/Libraries/STM32F10x_StdPeriph_Driver/src/stm32f10x_bkp.o
BKP_ClearITPendingBit                             build/bsp/Libraries/STM32F10x_StdPeriph_Driver/src/stm32f10x_bkp.o
BKP_DeInit                                        build/bsp/Libraries/STM32F10x_StdPeriph_Driver/src/stm32f10x_bkp.o
                                                  build/bsp/rtc.o
BKP_GetFlagStatus                                 build/bsp/Libraries/STM32F10x_StdPeriph_Driver/src/stm32f10x_bkp.o
BKP_GetITStatus                                   build/bsp/Libraries/STM32F10x_StdPeriph_Driver/src/stm32f10x_bkp.o
BKP_ITConfig                                      build/bsp/Libraries/STM32F10x_StdPeriph_Driver/src/stm32f10x_bkp.o
BKP_RTCOutputConfig                               build/bsp/Libraries/STM32F10x_StdPeriph_Driver/src/stm32f10x_bkp.o
BKP_ReadBackupRegister                            build/bsp/Libraries/STM32F10x_StdPeriph_Driver/src/stm32f10x_bkp.o
                                                  build/bsp/rtc.o
BKP_SetRTCCalibrationValue                        build/bsp/Libraries/STM32F10x_StdPeriph_Driver/src/stm32f10x_bkp.o
BKP_TamperPinCmd                                  build/bsp/Libraries/STM32F10x_StdPeriph_Driver/src/stm32f10x_bkp.o
BKP_TamperPinLevelConfig                          build/bsp/Libraries/STM32F10x_StdPeriph_Driver/src/stm32f10x_bkp.o
BKP_WriteBackupRegister                           build/bsp/Libraries/STM32F10x_StdPeriph_Driver/src/stm32f10x_bkp.o
                                                  build/bsp/rtc.o
BusFault_Handler                                  build/bsp/stm32f10x_it.o
CAN1_RX1_IRQHandler                               build/bsp/Libraries/CMSIS/CM3/DeviceSupport/ST/STM32F10x/startup/gcc_ride7/startup_stm32f10x_hd.o
CAN1_SCE_IRQHandler                               build/bsp/Libraries/CMSIS/CM3/DeviceSupport/ST/STM32F10x/startup/gcc_ride7/startup_stm32f10x_hd.o
CAN_CancelTransmit                                build/bsp/Libraries/STM32F10x_StdPeriph_Driver/src/stm32f10x_can.o
CAN_ClearFlag                                     build/bsp/Libraries/STM32F10x_StdPeriph_Driver/src/stm32f10x_can.o
CAN_ClearITPendingBit                             build/bsp/Libraries/STM32F10x_StdPeriph_Driver/src/stm32f10x_can.o
CAN_DBGFreeze                                     build/bsp/Libraries/STM32F10x_StdPeriph_Driver/src/stm32f10x_can.o
CAN_DeInit                                        build/bsp/Libraries/STM32F10x_StdPeriph_Driver/src/stm32f10x_can.o
CAN_FIFORelease                                   build/bsp/Libraries/STM32F10x_StdPeriph_Driver/src/stm32f10x_can.o
CAN_FilterInit                                    build/bsp/Libraries/STM32F10x_StdPeriph_Driver/src/stm32f10x_can.o
CAN_GetFlagStatus                                 build/bsp/Libraries/STM32F10x_StdPeriph_Driver/src/stm32f10x_can.o
CAN_GetITStatus                                   build/bsp/Libraries/STM32F10x_StdPeriph_Driver/src/stm32f10x_can.o
CAN_GetLSBTransmitErrorCounter                    build/bsp/Libraries/STM32F10x_StdPeriph_Driver/src/stm32f10x_can.o
CAN_GetLastErrorCode                              build/bsp/Libraries/STM32F10x_StdPeriph_Driver/src/stm32f10x_can.o
CAN_GetReceiveErrorCounter                        build/bsp/Libraries/STM32F10x_StdPeriph_Driver/src/stm32f10x_can.o
CAN_ITConfig                                      build/bsp/Libraries/STM32F10x_StdPeriph_Driver/src/stm32f10x_can.o
CAN_Init                                          build/bsp/Libraries/STM32F10x_StdPeriph_Driver/src/stm32f10x_can.o
CAN_MessagePending                                build/bsp/Libraries/STM32F10x_StdPeriph_Driver/src/stm32f10x_can.o
CAN_OperatingModeRequest                          build/bsp/Libraries/STM32F10x_StdPeriph_Driver/src/stm32f10x_can.o
CAN_Receive                                       build/bsp/Libraries/STM32F10x_StdPeriph_Driver/src/stm32f10x_can.o
CAN_SlaveStartBank                                build/bsp/Libraries/STM32F10x_StdPeriph_Driver/src/stm32f10x_can.o
CAN_Sleep                                         build/bsp/Libraries/STM32F10x_StdPeriph_Driver/src/stm32f10x_can.o
CAN_StructInit                                    build/bsp/Libraries/STM32F10x_StdPeriph_Driver/src/stm32f10x_can.o
CAN_TTComModeCmd                                  build/bsp/Libraries/STM32F10x_StdPeriph_Driver/src/stm32f10x_can.o
CAN_Transmit                                      build/bsp/Libraries/STM32F10x_StdPeriph_Driver/src/stm32f10x_can.o
CAN_TransmitStatus                                build/bsp/Libraries/STM32F10x_StdPeriph_Driver/src/stm32f10x_can.o
CAN_WakeUp                                        build/bsp/Libraries/STM32F10x_StdPeriph_Driver/src/stm32f10x_can.o
CEC_ClearFlag                                     build/bsp/Libraries/STM32F10x_StdPeriph_Driver/src/stm32f10x_cec.o
CEC_ClearITPendingBit                             build/bsp/Libraries/STM32F10x_StdPeriph_Driver/src/stm32f10x_cec.o
CEC_Cmd                                           build/bsp/Libraries/STM32F10x_StdPeriph_Driver/src/stm32f10x_cec.o
CEC_DeInit                                        build/bsp/Libraries/STM32F10x_StdPeriph_Driver/src/stm32f10x_cec.o
CEC_EndOfMessageCmd                               build/bsp/Libraries/STM32F10x_StdPeriph_Driver/src/stm32f10x_cec.o
CEC_GetFlagStatus                                 build/bsp/Libraries/STM32F10x_StdPeriph_Driver/src/stm32f10x_cec.o
CEC_GetITStatus                                   build/bsp/Libraries/STM32F10x_StdPeriph_Driver/src/stm32f10x_cec.o
CEC_ITConfig                                      build/bsp/Libraries/STM32F10x_StdPeriph_Driver/src/stm32f10x_cec.o
CEC_Init                                          build/bsp/Libraries/STM32F10x_StdPeriph_Driver/src/stm32f10x_cec.o
CEC_OwnAddressConfig                              build/bsp/Libraries/STM32F10x_StdPeriph_Driver/src/stm32f10x_cec.o
CEC_ReceiveDataByte                               build/bsp/Libraries/STM32F10x_StdPeriph_Driver/src/stm32f10x_cec.o
CEC_SendDataByte                                  build/bsp/Libraries/STM32F10x_StdPeriph_Driver/src/stm32f10x_cec.o
CEC_SetPrescaler                                  build/bsp/Libraries/STM32F10x_StdPeriph_Driver/src/stm32f10x_cec.o
CEC_StartOfMessage                                build/bsp/Libraries/STM32F10x_StdPeriph_Driver/src/stm32f10x_cec.o
CRC_CalcBlockCRC                                  build/bsp/Libraries/STM32F10x_StdPeriph_Driver/src/stm32f10x_crc.o
CRC_CalcCRC                                       build/bsp/Libraries/STM32F10x_StdPeriph_Driver/src/stm32f10x_crc.o
CRC_GetCRC                                        build/bsp/Libraries/STM32F10x_StdPeriph_Driver/src/stm32f10x_crc.o
CRC_GetIDRegister                                 build/bsp/Libraries/STM32F10x_StdPeriph_Driver/src/stm32f10x_crc.o
CRC_ResetDR                                       build/bsp/Libraries/STM32F10x_StdPeriph_Driver/src/stm32f10x_crc.o
CRC_SetIDRegister                                 build/bsp/Libraries/STM32F10x_StdPeriph_Driver/src/stm32f10x_crc.o
DAC_Cmd                                           build/bsp/Libraries/STM32F10x_StdPeriph_Driver/src/stm32f10x_dac.o
DAC_DMACmd                                        build/bsp/Libraries/STM32F10x_StdPeriph_Driver/src/stm32f10x_dac.o
DAC_DeInit                                        build/bsp/Libraries/STM32F10x_StdPeriph_Driver/src/stm32f10x_dac.o
DAC_DualSoftwareTriggerCmd                        build/bsp/Libraries/STM32F10x_StdPeriph_Driver/src/stm32f10x_dac.o
DAC_GetDataOutputValue                            build/bsp/Libraries/STM32F10x_StdPeriph_Driver/src/stm32f10x_dac.o
DAC_Init                                          build/bsp/Libraries/STM32F10x_StdPeriph_Driver/src/stm32f10x_dac.o
DAC_SetChannel1Data                               build/bsp/Libraries/STM32F10x_StdPeriph_Driver/src/stm32f10x_dac.o
DAC_SetChannel2Data                               build/bsp/Libraries/STM32F10x_StdPeriph_Driver/src/stm32f10x_dac.o
DAC_SetDualChannelData                            build/bsp/Libraries/STM32F10x_StdPeriph_Driver/src/stm32f10x_dac.o
DAC_SoftwareTriggerCmd                            build/bsp/Libraries/STM32F10x_StdPeriph_Driver/src/stm32f10x_dac.o
DAC_StructInit                                    build/bsp/Libraries/STM32F10x_StdPeriph_Driver/src/stm32f10x_dac.o
DAC_WaveGenerationCmd                             build/bsp/Libraries/STM32F10x_StdPeriph_Driver/src/stm32f10x_dac.o
DBGMCU_Config                                     build/bsp/Libraries/STM32F10x_StdPeriph_Driver/src/stm32f10x_dbgmcu.o
DBGMCU_GetDEVID                                   build/bsp/Libraries/STM32F10x_StdPeriph_Driver/src/stm32f10x_dbgmcu.o
DBGMCU_GetREVID                                   build/bsp/Libraries/STM32F10x_StdPeriph_Driver/src/stm32f10x_dbgmcu.o
DMA1_Channel1_IRQHandler                          build/bsp/Libraries/CMSIS/CM3/DeviceSupport/ST/STM32F10x/startup/gcc_ride7/startup_stm32f10x_hd.o
DMA1_Channel2_IRQHandler                          build/bsp/stm32f10x_it.o
DMA1_Channel3_IRQHandler                          build/bsp/Libraries/CMSIS/CM3/DeviceSupport/ST/STM32F10x/startup/gcc_ride7/startup_stm32f10x_hd.o
DMA1_Channel4_IRQHandler                          build/bsp/Libraries/CMSIS/CM3/DeviceSupport/ST/STM32F10x/startup/gcc_ride7/startup_stm32f10x_hd.o
DMA1_Channel5_IRQHandler                          build/bsp/Libraries/CMSIS/CM3/DeviceSupport/ST/STM32F10x/startup/gcc_ride7/startup_stm32f10x_hd.o
DMA1_Channel6_IRQHandler                          build/bsp/Libraries/CMSIS/CM3/DeviceSupport/ST/STM32F10x/startup/gcc_ride7/startup_stm32f10x_hd.o
DMA1_Channel7_IRQHandler                          build/bsp/Libraries/CMSIS/CM3/DeviceSupport/ST/STM32F10x/startup/gcc_ride7/startup_stm32f10x_hd.o
DMA2_Channel1_IRQHandler                          build/bsp/Libraries/CMSIS/CM3/DeviceSupport/ST/STM32F10x/startup/gcc_ride7/startup_stm32f10x_hd.o
DMA2_Channel2_IRQHandler                          build/bsp/Libraries/CMSIS/CM3/DeviceSupport/ST/STM32F10x/startup/gcc_ride7/startup_stm32f10x_hd.o
DMA2_Channel3_IRQHandler                          build/bsp/Libraries/CMSIS/CM3/DeviceSupport/ST/STM32F10x/startup/gcc_ride7/startup_stm32f10x_hd.o
DMA2_Channel4_5_IRQHandler                        build/bsp/Libraries/CMSIS/CM3/DeviceSupport/ST/STM32F10x/startup/gcc_ride7/startup_stm32f10x_hd.o
DMA_ClearFlag                                     build/bsp/Libraries/STM32F10x_StdPeriph_Driver/src/stm32f10x_dma.o
DMA_ClearITPendingBit                             build/bsp/Libraries/STM32F10x_StdPeriph_Driver/src/stm32f10x_dma.o
DMA_Cmd                                           build/bsp/Libraries/STM32F10x_StdPeriph_Driver/src/stm32f10x_dma.o
                                                  build/bsp/serial.o
DMA_DeInit                                        build/bsp/Libraries/STM32F10x_StdPeriph_Driver/src/stm32f10x_dma.o
DMA_GetCurrDataCounter                            build/bsp/Libraries/STM32F10x_StdPeriph_Driver/src/stm32f10x_dma.o
DMA_GetFlagStatus                                 build/bsp/Libraries/STM32F10x_StdPeriph_Driver/src/stm32f10x_dma.o
DMA_GetITStatus                                   build/bsp/Libraries/STM32F10x_StdPeriph_Driver/src/stm32f10x_dma.o
DMA_ITConfig                                      build/bsp/Libraries/STM32F10x_StdPeriph_Driver/src/stm32f10x_dma.o
DMA_Init                                          build/bsp/Libraries/STM32F10x_StdPeriph_Driver/src/stm32f10x_dma.o
DMA_SetCurrDataCounter                            build/bsp/Libraries/STM32F10x_StdPeriph_Driver/src/stm32f10x_dma.o
DMA_StructInit                                    build/bsp/Libraries/STM32F10x_StdPeriph_Driver/src/stm32f10x_dma.o
DebugMon_Handler                                  build/bsp/stm32f10x_it.o
Default_Handler                                   build/bsp/Libraries/CMSIS/CM3/DeviceSupport/ST/STM32F10x/startup/gcc_ride7/startup_stm32f10x_hd.o
EXTI0_IRQHandler                                  build/bsp/Libraries/CMSIS/CM3/DeviceSupport/ST/STM32F10x/startup/gcc_ride7/startup_stm32f10x_hd.o
EXTI15_10_IRQHandler                              build/bsp/Libraries/CMSIS/CM3/DeviceSupport/ST/STM32F10x/startup/gcc_ride7/startup_stm32f10x_hd.o
EXTI1_IRQHandler                                  build/bsp/Libraries/CMSIS/CM3/DeviceSupport/ST/STM32F10x/startup/gcc_ride7/startup_stm32f10x_hd.o
EXTI2_IRQHandler                                  build/bsp/Libraries/CMSIS/CM3/DeviceSupport/ST/STM32F10x/startup/gcc_ride7/startup_stm32f10x_hd.o
EXTI3_IRQHandler                                  build/bsp/Libraries/CMSIS/CM3/DeviceSupport/ST/STM32F10x/startup/gcc_ride7/startup_stm32f10x_hd.o
EXTI4_IRQHandler                                  build/bsp/Libraries/CMSIS/CM3/DeviceSupport/ST/STM32F10x/startup/gcc_ride7/startup_stm32f10x_hd.o
EXTI9_5_IRQHandler                                build/bsp/Libraries/CMSIS/CM3/DeviceSupport/ST/STM32F10x/startup/gcc_ride7/startup_stm32f10x_hd.o
EXTI_ClearFlag                                    build/bsp/Libraries/STM32F10x_StdPeriph_Driver/src/stm32f10x_exti.o
EXTI_ClearITPendingBit                            build/bsp/Libraries/STM32F10x_StdPeriph_Driver/src/stm32f10x_exti.o
EXTI_DeInit                                       build/bsp/Libraries/STM32F10x_StdPeriph_Driver/src/stm32f10x_exti.o
EXTI_GenerateSWInterrupt                          build/bsp/Libraries/STM32F10x_StdPeriph_Driver/src/stm32f10x_exti.o
EXTI_GetFlagStatus                                build/bsp/Libraries/STM32F10x_StdPeriph_Driver/src/stm32f10x_exti.o
EXTI_GetITStatus                                  build/bsp/Libraries/STM32F10x_StdPeriph_Driver/src/stm32f10x_exti.o
EXTI_Init                                         build/bsp/Libraries/STM32F10x_StdPeriph_Driver/src/stm32f10x_exti.o
EXTI_StructInit                                   build/bsp/Libraries/STM32F10x_StdPeriph_Driver/src/stm32f10x_exti.o
FLASH_ClearFlag                                   build/bsp/Libraries/STM32F10x_StdPeriph_Driver/src/stm32f10x_flash.o
FLASH_EnableWriteProtection                       build/bsp/Libraries/STM32F10x_StdPeriph_Driver/src/stm32f10x_flash.o
FLASH_EraseAllBank1Pages                          build/bsp/Libraries/STM32F10x_StdPeriph_Driver/src/stm32f10x_flash.o
FLASH_EraseAllPages                               build/bsp/Libraries/STM32F10x_StdPeriph_Driver/src/stm32f10x_flash.o
FLASH_EraseOptionBytes                            build/bsp/Libraries/STM32F10x_StdPeriph_Driver/src/stm32f10x_flash.o
FLASH_ErasePage                                   build/bsp/Libraries/STM32F10x_StdPeriph_Driver/src/stm32f10x_flash.o
FLASH_GetBank1Status                              build/bsp/Libraries/STM32F10x_StdPeriph_Driver/src/stm32f10x_flash.o
FLASH_GetFlagStatus                               build/bsp/Libraries/STM32F10x_StdPeriph_Driver/src/stm32f10x_flash.o
FLASH_GetPrefetchBufferStatus                     build/bsp/Libraries/STM32F10x_StdPeriph_Driver/src/stm32f10x_flash.o
FLASH_GetReadOutProtectionStatus                  build/bsp/Libraries/STM32F10x_StdPeriph_Driver/src/stm32f10x_flash.o
FLASH_GetStatus                                   build/bsp/Libraries/STM32F10x_StdPeriph_Driver/src/stm32f10x_flash.o
FLASH_GetUserOptionByte                           build/bsp/Libraries/STM32F10x_StdPeriph_Driver/src/stm32f10x_flash.o
FLASH_GetWriteProtectionOptionByte                build/bsp/Libraries/STM32F10x_StdPeriph_Driver/src/stm32f10x_flash.o
FLASH_HalfCycleAccessCmd                          build/bsp/Libraries/STM32F10x_StdPeriph_Driver/src/stm32f10x_flash.o
FLASH_IRQHandler                                  build/bsp/Libraries/CMSIS/CM3/DeviceSupport/ST/STM32F10x/startup/gcc_ride7/startup_stm32f10x_hd.o
FLASH_ITConfig                                    build/bsp/Libraries/STM32F10x_StdPeriph_Driver/src/stm32f10x_flash.o
FLASH_Lock                                        build/bsp/Libraries/STM32F10x_StdPeriph_Driver/src/stm32f10x_flash.o
FLASH_LockBank1                                   build/bsp/Libraries/STM32F10x_StdPeriph_Driver/src/stm32f10x_flash.o
FLASH_PrefetchBufferCmd                           build/bsp/Libraries/STM32F10x_StdPeriph_Driver/src/stm32f10x_flash.o
FLASH_ProgramHalfWord                             build/bsp/Libraries/STM32F10x_StdPeriph_Driver/src/stm32f10x_flash.o
FLASH_ProgramOptionByteData                       build/bsp/Libraries/STM32F10x_StdPeriph_Driver/src/stm32f10x_flash.o
FLASH_ProgramWord                                 build/bsp/Libraries/STM32F10x_StdPeriph_Driver/src/stm32f10x_flash.o
FLASH_ReadOutProtection                           build/bsp/Libraries/STM32F10x_StdPeriph_Driver/src/stm32f10x_flash.o
FLASH_SetLatency                                  build/bsp/Libraries/STM32F10x_StdPeriph_Driver/src/stm32f10x_flash.o
FLASH_Unlock                                      build/bsp/Libraries/STM32F10x_StdPeriph_Driver/src/stm32f10x_flash.o
FLASH_UnlockBank1                                 build/bsp/Libraries/STM32F10x_StdPeriph_Driver/src/stm32f10x_flash.o
FLASH_UserOptionByteConfig                        build/bsp/Libraries/STM32F10x_StdPeriph_Driver/src/stm32f10x_flash.o
FLASH_WaitForLastBank1Operation                   build/bsp/Libraries/STM32F10x_StdPeriph_Driver/src/stm32f10x_flash.o
FLASH_WaitForLastOperation                        build/bsp/Libraries/STM32F10x_StdPeriph_Driver/src/stm32f10x_flash.o
FSMC_ClearFlag                                    build/bsp/Libraries/STM32F10x_StdPeriph_Driver/src/stm32f10x_fsmc.o
FSMC_ClearITPendingBit                            build/bsp/Libraries/STM32F10x_StdPeriph_Driver/src/stm32f10x_fsmc.o
FSMC_GetECC                                       build/bsp/Libraries/STM32F10x_StdPeriph_Driver/src/stm32f10x_fsmc.o
FSMC_GetFlagStatus                                build/bsp/Libraries/STM32F10x_StdPeriph_Driver/src/stm32f10x_fsmc.o
FSMC_GetITStatus                                  build/bsp/Libraries/STM32F10x_StdPeriph_Driver/src/stm32f10x_fsmc.o
FSMC_IRQHandler                                   build/bsp/Libraries/CMSIS/CM3/DeviceSupport/ST/STM32F10x/startup/gcc_ride7/startup_stm32f10x_hd.o
FSMC_ITConfig                                     build/bsp/Libraries/STM32F10x_StdPeriph_Driver/src/stm32f10x_fsmc.o
FSMC_NANDCmd                                      build/bsp/Libraries/STM32F10x_StdPeriph_Driver/src/stm32f10x_fsmc.o
FSMC_NANDDeInit                                   build/bsp/Libraries/STM32F10x_StdPeriph_Driver/src/stm32f10x_fsmc.o
FSMC_NANDECCCmd                                   build/bsp/Libraries/STM32F10x_StdPeriph_Driver/src/stm32f10x_fsmc.o
FSMC_NANDInit                                     build/bsp/Libraries/STM32F10x_StdPeriph_Driver/src/stm32f10x_fsmc.o
FSMC_NANDStructInit                               build/bsp/Libraries/STM32F10x_StdPeriph_Driver/src/stm32f10x_fsmc.o
FSMC_NORSRAMCmd                                   build/bsp/Libraries/STM32F10x_StdPeriph_Driver/src/stm32f10x_fsmc.o
FSMC_NORSRAMDeInit                                build/bsp/Libraries/STM32F10x_StdPeriph_Driver/src/stm32f10x_fsmc.o
FSMC_NORSRAMInit                                  build/bsp/Libraries/STM32F10x_StdPeriph_Driver/src/stm32f10x_fsmc.o
FSMC_NORSRAMStructInit                            build/bsp/Libraries/STM32F10x_StdPeriph_Driver/src/stm32f10x_fsmc.o
FSMC_PCCARDCmd                                    build/bsp/Libraries/STM32F10x_StdPeriph_Driver/src/stm32f10x_fsmc.o
FSMC_PCCARDDeInit                                 build/bsp/Libraries/STM32F10x_StdPeriph_Driver/src/stm32f10x_fsmc.o
FSMC_PCCARDInit                                   build/bsp/Libraries/STM32F10x_StdPeriph_Driver/src/stm32f10x_fsmc.o
FSMC_PCCARDStructInit                             build/bsp/Libraries/STM32F10x_StdPeriph_Driver/src/stm32f10x_fsmc.o
GPIO_AFIODeInit                                   build/bsp/Libraries/STM32F10x_StdPeriph_Driver/src/stm32f10x_gpio.o
GPIO_DeInit                                       build/bsp/Libraries/STM32F10x_StdPeriph_Driver/src/stm32f10x_gpio.o
GPIO_ETH_MediaInterfaceConfig                     build/bsp/Libraries/STM32F10x_StdPeriph_Driver/src/stm32f10x_gpio.o
GPIO_EXTILineConfig                               build/bsp/Libraries/STM32F10x_StdPeriph_Driver/src/stm32f10x_gpio.o
GPIO_EventOutputCmd                               build/bsp/Libraries/STM32F10x_StdPeriph_Driver/src/stm32f10x_gpio.o
GPIO_EventOutputConfig                            build/bsp/Libraries/STM32F10x_StdPeriph_Driver/src/stm32f10x_gpio.o
GPIO_Init                                         build/bsp/Libraries/STM32F10x_StdPeriph_Driver/src/stm32f10x_gpio.o
                                                  build/bsp/led.o
                                                  build/bsp/usart.o
GPIO_PinLockConfig                                build/bsp/Libraries/STM32F10x_StdPeriph_Driver/src/stm32f10x_gpio.o
GPIO_PinRemapConfig                               build/bsp/Libraries/STM32F10x_StdPeriph_Driver/src/stm32f10x_gpio.o
GPIO_ReadInputData                                build/bsp/Libraries/STM32F10x_StdPeriph_Driver/src/stm32f10x_gpio.o
GPIO_ReadInputDataBit                             build/bsp/Libraries/STM32F10x_StdPeriph_Driver/src/stm32f10x_gpio.o
GPIO_ReadOutputData                               build/bsp/Libraries/STM32F10x_StdPeriph_Driver/src/stm32f10x_gpio.o
GPIO_ReadOutputDataBit                            build/bsp/Libraries/STM32F10x_StdPeriph_Driver/src/stm32f10x_gpio.o
GPIO_ResetBits                                    build/bsp/Libraries/STM32F10x_StdPeriph_Driver/src/stm32f10x_gpio.o
                                                  build/bsp/led.o
GPIO_SetBits                                      build/bsp/Libraries/STM32F10x_StdPeriph_Driver/src/stm32f10x_gpio.o
                                                  build/bsp/led.o
GPIO_StructInit                                   build/bsp/Libraries/STM32F10x_StdPeriph_Driver/src/stm32f10x_gpio.o
GPIO_Write                                        build/bsp/Libraries/STM32F10x_StdPeriph_Driver/src/stm32f10x_gpio.o
GPIO_WriteBit                                     build/bsp/Libraries/STM32F10x_StdPeriph_Driver/src/stm32f10x_gpio.o
HardFault_Handler                                 build/libcpu/arm/cortex-m3/context_gcc.o
I2C1_ER_IRQHandler                                build/bsp/Libraries/CMSIS/CM3/DeviceSupport/ST/STM32F10x/startup/gcc_ride7/startup_stm32f10x_hd.o
I2C1_EV_IRQHandler                                build/bsp/Libraries/CMSIS/CM3/DeviceSupport/ST/STM32F10x/startup/gcc_ride7/startup_stm32f10x_hd.o
I2C2_ER_IRQHandler                                build/bsp/Libraries/CMSIS/CM3/DeviceSupport/ST/STM32F10x/startup/gcc_ride7/startup_stm32f10x_hd.o
I2C2_EV_IRQHandler                                build/bsp/Libraries/CMSIS/CM3/DeviceSupport/ST/STM32F10x/startup/gcc_ride7/startup_stm32f10x_hd.o
I2C_ARPCmd                                        build/bsp/Libraries/STM32F10x_StdPeriph_Driver/src/stm32f10x_i2c.o
I2C_AcknowledgeConfig                             build/bsp/Libraries/STM32F10x_StdPeriph_Driver/src/stm32f10x_i2c.o
I2C_CalculatePEC                                  build/bsp/Libraries/STM32F10x_StdPeriph_Driver/src/stm32f10x_i2c.o
I2C_CheckEvent                                    build/bsp/Libraries/STM32F10x_StdPeriph_Driver/src/stm32f10x_i2c.o
I2C_ClearFlag                                     build/bsp/Libraries/STM32F10x_StdPeriph_Driver/src/stm32f10x_i2c.o
I2C_ClearITPendingBit                             build/bsp/Libraries/STM32F10x_StdPeriph_Driver/src/stm32f10x_i2c.o
I2C_Cmd                                           build/bsp/Libraries/STM32F10x_StdPeriph_Driver/src/stm32f10x_i2c.o
I2C_DMACmd                                        build/bsp/Libraries/STM32F10x_StdPeriph_Driver/src/stm32f10x_i2c.o
I2C_DMALastTransferCmd                            build/bsp/Libraries/STM32F10x_StdPeriph_Driver/src/stm32f10x_i2c.o
I2C_DeInit                                        build/bsp/Libraries/STM32F10x_StdPeriph_Driver/src/stm32f10x_i2c.o
I2C_DualAddressCmd                                build/bsp/Libraries/STM32F10x_StdPeriph_Driver/src/stm32f10x_i2c.o
I2C_FastModeDutyCycleConfig                       build/bsp/Libraries/STM32F10x_StdPeriph_Driver/src/stm32f10x_i2c.o
I2C_GeneralCallCmd                                build/bsp/Libraries/STM32F10x_StdPeriph_Driver/src/stm32f10x_i2c.o
I2C_GenerateSTART                                 build/bsp/Libraries/STM32F10x_StdPeriph_Driver/src/stm32f10x_i2c.o
I2C_GenerateSTOP                                  build/bsp/Libraries/STM32F10x_StdPeriph_Driver/src/stm32f10x_i2c.o
I2C_GetFlagStatus                                 build/bsp/Libraries/STM32F10x_StdPeriph_Driver/src/stm32f10x_i2c.o
I2C_GetITStatus                                   build/bsp/Libraries/STM32F10x_StdPeriph_Driver/src/stm32f10x_i2c.o
I2C_GetLastEvent                                  build/bsp/Libraries/STM32F10x_StdPeriph_Driver/src/stm32f10x_i2c.o
I2C_GetPEC                                        build/bsp/Libraries/STM32F10x_StdPeriph_Driver/src/stm32f10x_i2c.o
I2C_ITConfig                                      build/bsp/Libraries/STM32F10x_StdPeriph_Driver/src/stm32f10x_i2c.o
I2C_Init                                          build/bsp/Libraries/STM32F10x_StdPeriph_Driver/src/stm32f10x_i2c.o
I2C_NACKPositionConfig                            build/bsp/Libraries/STM32F10x_StdPeriph_Driver/src/stm32f10x_i2c.o
I2C_OwnAddress2Config                             build/bsp/Libraries/STM32F10x_StdPeriph_Driver/src/stm32f10x_i2c.o
I2C_PECPositionConfig                             build/bsp/Libraries/STM32F10x_StdPeriph_Driver/src/stm32f10x_i2c.o
I2C_ReadRegister                                  build/bsp/Libraries/STM32F10x_StdPeriph_Driver/src/stm32f10x_i2c.o
I2C_ReceiveData                                   build/bsp/Libraries/STM32F10x_StdPeriph_Driver/src/stm32f10x_i2c.o
I2C_SMBusAlertConfig                              build/bsp/Libraries/STM32F10x_StdPeriph_Driver/src/stm32f10x_i2c.o
I2C_Send7bitAddress                               build/bsp/Libraries/STM32F10x_StdPeriph_Driver/src/stm32f10x_i2c.o
I2C_SendData                                      build/bsp/Libraries/STM32F10x_StdPeriph_Driver/src/stm32f10x_i2c.o
I2C_SoftwareResetCmd                              build/bsp/Libraries/STM32F10x_StdPeriph_Driver/src/stm32f10x_i2c.o
I2C_StretchClockCmd                               build/bsp/Libraries/STM32F10x_StdPeriph_Driver/src/stm32f10x_i2c.o
I2C_StructInit                                    build/bsp/Libraries/STM32F10x_StdPeriph_Driver/src/stm32f10x_i2c.o
I2C_TransmitPEC                                   build/bsp/Libraries/STM32F10x_StdPeriph_Driver/src/stm32f10x_i2c.o
I2S_Cmd                                           build/bsp/Libraries/STM32F10x_StdPeriph_Driver/src/stm32f10x_spi.o
I2S_Init                                          build/bsp/Libraries/STM32F10x_StdPeriph_Driver/src/stm32f10x_spi.o
I2S_StructInit                                    build/bsp/Libraries/STM32F10x_StdPeriph_Driver/src/stm32f10x_spi.o
IWDG_Enable                                       build/bsp/Libraries/STM32F10x_StdPeriph_Driver/src/stm32f10x_iwdg.o
IWDG_GetFlagStatus                                build/bsp/Libraries/STM32F10x_StdPeriph_Driver/src/stm32f10x_iwdg.o
IWDG_ReloadCounter                                build/bsp/Libraries/STM32F10x_StdPeriph_Driver/src/stm32f10x_iwdg.o
IWDG_SetPrescaler                                 build/bsp/Libraries/STM32F10x_StdPeriph_Driver/src/stm32f10x_iwdg.o
IWDG_SetReload                                    build/bsp/Libraries/STM32F10x_StdPeriph_Driver/src/stm32f10x_iwdg.o
IWDG_WriteAccessCmd                               build/bsp/Libraries/STM32F10x_StdPeriph_Driver/src/stm32f10x_iwdg.o
MemManage_Handler                                 build/bsp/stm32f10x_it.o
NMI_Handler                                       build/bsp/stm32f10x_it.o
NVIC_Configuration                                build/bsp/board.o
NVIC_Init                                         build/bsp/Libraries/STM32F10x_StdPeriph_Driver/src/misc.o
                                                  build/bsp/usart.o
NVIC_PriorityGroupConfig                          build/bsp/Libraries/STM32F10x_StdPeriph_Driver/src/misc.o
NVIC_SetVectorTable                               build/bsp/Libraries/STM32F10x_StdPeriph_Driver/src/misc.o
                                                  build/bsp/board.o
NVIC_SystemLPConfig                               build/bsp/Libraries/STM32F10x_StdPeriph_Driver/src/misc.o
OP_add_byte                                       build/components/finsh/libfinsh.a(finsh_ops.o)
OP_add_dword                                      build/components/finsh/libfinsh.a(finsh_ops.o)
OP_add_word                                       build/components/finsh/libfinsh.a(finsh_ops.o)
OP_and_byte                                       build/components/finsh/libfinsh.a(finsh_ops.o)
OP_and_dword                                      build/components/finsh/libfinsh.a(finsh_ops.o)
OP_and_word                                       build/components/finsh/libfinsh.a(finsh_ops.o)
OP_bw_byte                                        build/components/finsh/libfinsh.a(finsh_ops.o)
OP_bw_dword                                       build/components/finsh/libfinsh.a(finsh_ops.o)
OP_bw_word                                        build/components/finsh/libfinsh.a(finsh_ops.o)
OP_call                                           build/components/finsh/libfinsh.a(finsh_ops.o)
OP_div_byte                                       build/components/finsh/libfinsh.a(finsh_ops.o)
OP_div_dword                                      build/components/finsh/libfinsh.a(finsh_ops.o)
OP_div_word                                       build/components/finsh/libfinsh.a(finsh_ops.o)
OP_ld_byte                                        build/components/finsh/libfinsh.a(finsh_ops.o)
OP_ld_dword                                       build/components/finsh/libfinsh.a(finsh_ops.o)
OP_ld_value_byte                                  build/components/finsh/libfinsh.a(finsh_ops.o)
OP_ld_value_byte_stack                            build/components/finsh/libfinsh.a(finsh_ops.o)
OP_ld_value_dword                                 build/components/finsh/libfinsh.a(finsh_ops.o)
OP_ld_value_dword_stack                           build/components/finsh/libfinsh.a(finsh_ops.o)
OP_ld_value_word                                  build/components/finsh/libfinsh.a(finsh_ops.o)
OP_ld_value_word_stack                            build/components/finsh/libfinsh.a(finsh_ops.o)
OP_ld_word                                        build/components/finsh/libfinsh.a(finsh_ops.o)
OP_mod_byte                                       build/components/finsh/libfinsh.a(finsh_ops.o)
OP_mod_dword                                      build/components/finsh/libfinsh.a(finsh_ops.o)
OP_mod_word                                       build/components/finsh/libfinsh.a(finsh_ops.o)
OP_mul_byte                                       build/components/finsh/libfinsh.a(finsh_ops.o)
OP_mul_dword                                      build/components/finsh/libfinsh.a(finsh_ops.o)
OP_mul_word                                       build/components/finsh/libfinsh.a(finsh_ops.o)
OP_no_op                                          build/components/finsh/libfinsh.a(finsh_ops.o)
OP_or_byte                                        build/components/finsh/libfinsh.a(finsh_ops.o)
OP_or_dword                                       build/components/finsh/libfinsh.a(finsh_ops.o)
OP_or_word                                        build/components/finsh/libfinsh.a(finsh_ops.o)
OP_pop                                            build/components/finsh/libfinsh.a(finsh_ops.o)
OP_shl_byte                                       build/components/finsh/libfinsh.a(finsh_ops.o)
OP_shl_dword                                      build/components/finsh/libfinsh.a(finsh_ops.o)
OP_shl_word                                       build/components/finsh/libfinsh.a(finsh_ops.o)
OP_shr_byte                                       build/components/finsh/libfinsh.a(finsh_ops.o)
OP_shr_dword                                      build/components/finsh/libfinsh.a(finsh_ops.o)
OP_shr_word                                       build/components/finsh/libfinsh.a(finsh_ops.o)
OP_st_byte                                        build/components/finsh/libfinsh.a(finsh_ops.o)
OP_st_dword                                       build/components/finsh/libfinsh.a(finsh_ops.o)
OP_st_word                                        build/components/finsh/libfinsh.a(finsh_ops.o)
OP_sub_byte                                       build/components/finsh/libfinsh.a(finsh_ops.o)
OP_sub_dword                                      build/components/finsh/libfinsh.a(finsh_ops.o)
OP_sub_word                                       build/components/finsh/libfinsh.a(finsh_ops.o)
OP_xor_byte                                       build/components/finsh/libfinsh.a(finsh_ops.o)
OP_xor_dword                                      build/components/finsh/libfinsh.a(finsh_ops.o)
OP_xor_word                                       build/components/finsh/libfinsh.a(finsh_ops.o)
PVD_IRQHandler                                    build/bsp/Libraries/CMSIS/CM3/DeviceSupport/ST/STM32F10x/startup/gcc_ride7/startup_stm32f10x_hd.o
PWR_BackupAccessCmd                               build/bsp/Libraries/STM32F10x_StdPeriph_Driver/src/stm32f10x_pwr.o
                                                  build/bsp/rtc.o
PWR_ClearFlag                                     build/bsp/Libraries/STM32F10x_StdPeriph_Driver/src/stm32f10x_pwr.o
PWR_DeInit                                        build/bsp/Libraries/STM32F10x_StdPeriph_Driver/src/stm32f10x_pwr.o
PWR_EnterSTANDBYMode                              build/bsp/Libraries/STM32F10x_StdPeriph_Driver/src/stm32f10x_pwr.o
PWR_EnterSTOPMode                                 build/bsp/Libraries/STM32F10x_StdPeriph_Driver/src/stm32f10x_pwr.o
PWR_GetFlagStatus                                 build/bsp/Libraries/STM32F10x_StdPeriph_Driver/src/stm32f10x_pwr.o
PWR_PVDCmd                                        build/bsp/Libraries/STM32F10x_StdPeriph_Driver/src/stm32f10x_pwr.o
PWR_PVDLevelConfig                                build/bsp/Libraries/STM32F10x_StdPeriph_Driver/src/stm32f10x_pwr.o
PWR_WakeUpPinCmd                                  build/bsp/Libraries/STM32F10x_StdPeriph_Driver/src/stm32f10x_pwr.o
PendSV_Handler                                    build/libcpu/arm/cortex-m3/context_gcc.o
RCC_ADCCLKConfig                                  build/bsp/Libraries/STM32F10x_StdPeriph_Driver/src/stm32f10x_rcc.o
RCC_AHBPeriphClockCmd                             build/bsp/Libraries/STM32F10x_StdPeriph_Driver/src/stm32f10x_rcc.o
RCC_APB1PeriphClockCmd                            build/bsp/Libraries/STM32F10x_StdPeriph_Driver/src/stm32f10x_rcc.o
                                                  build/bsp/rtc.o
RCC_APB1PeriphResetCmd                            build/bsp/Libraries/STM32F10x_StdPeriph_Driver/src/stm32f10x_rcc.o
                                                  build/bsp/Libraries/STM32F10x_StdPeriph_Driver/src/stm32f10x_cec.o
                                                  build/bsp/Libraries/STM32F10x_StdPeriph_Driver/src/stm32f10x_can.o
                                                  build/bsp/Libraries/STM32F10x_StdPeriph_Driver/src/stm32f10x_usart.o
                                                  build/bsp/Libraries/STM32F10x_StdPeriph_Driver/src/stm32f10x_spi.o
                                                  build/bsp/Libraries/STM32F10x_StdPeriph_Driver/src/stm32f10x_tim.o
                                                  build/bsp/Libraries/STM32F10x_StdPeriph_Driver/src/stm32f10x_dac.o
                                                  build/bsp/Libraries/STM32F10x_StdPeriph_Driver/src/stm32f10x_i2c.o
                                                  build/bsp/Libraries/STM32F10x_StdPeriph_Driver/src/stm32f10x_pwr.o
                                                  build/bsp/Libraries/STM32F10x_StdPeriph_Driver/src/stm32f10x_wwdg.o
RCC_APB2PeriphClockCmd                            build/bsp/Libraries/STM32F10x_StdPeriph_Driver/src/stm32f10x_rcc.o
                                                  build/bsp/led.o
                                                  build/bsp/usart.o
RCC_APB2PeriphResetCmd                            build/bsp/Libraries/STM32F10x_StdPeriph_Driver/src/stm32f10x_rcc.o
                                                  build/bsp/Libraries/STM32F10x_StdPeriph_Driver/src/stm32f10x_usart.o
                                                  build/bsp/Libraries/STM32F10x_StdPeriph_Driver/src/stm32f10x_gpio.o
                                                  build/bsp/Libraries/STM32F10x_StdPeriph_Driver/src/stm32f10x_spi.o
                                                  build/bsp/Libraries/STM32F10x_StdPeriph_Driver/src/stm32f10x_tim.o
                                                  build/bsp/Libraries/STM32F10x_StdPeriph_Driver/src/stm32f10x_adc.o
RCC_AdjustHSICalibrationValue                     build/bsp/Libraries/STM32F10x_StdPeriph_Driver/src/stm32f10x_rcc.o
RCC_BackupResetCmd                                build/bsp/Libraries/STM32F10x_StdPeriph_Driver/src/stm32f10x_rcc.o
                                                  build/bsp/Libraries/STM32F10x_StdPeriph_Driver/src/stm32f10x_bkp.o
RCC_ClearFlag                                     build/bsp/Libraries/STM32F10x_StdPeriph_Driver/src/stm32f10x_rcc.o
RCC_ClearITPendingBit                             build/bsp/Libraries/STM32F10x_StdPeriph_Driver/src/stm32f10x_rcc.o
RCC_ClockSecuritySystemCmd                        build/bsp/Libraries/STM32F10x_StdPeriph_Driver/src/stm32f10x_rcc.o
RCC_DeInit                                        build/bsp/Libraries/STM32F10x_StdPeriph_Driver/src/stm32f10x_rcc.o
RCC_GetClocksFreq                                 build/bsp/Libraries/STM32F10x_StdPeriph_Driver/src/stm32f10x_rcc.o
                                                  build/bsp/Libraries/STM32F10x_StdPeriph_Driver/src/stm32f10x_usart.o
                                                  build/bsp/Libraries/STM32F10x_StdPeriph_Driver/src/stm32f10x_spi.o
                                                  build/bsp/Libraries/STM32F10x_StdPeriph_Driver/src/stm32f10x_i2c.o
RCC_GetFlagStatus                                 build/bsp/Libraries/STM32F10x_StdPeriph_Driver/src/stm32f10x_rcc.o
                                                  build/bsp/rtc.o
RCC_GetITStatus                                   build/bsp/Libraries/STM32F10x_StdPeriph_Driver/src/stm32f10x_rcc.o
RCC_GetSYSCLKSource                               build/bsp/Libraries/STM32F10x_StdPeriph_Driver/src/stm32f10x_rcc.o
RCC_HCLKConfig                                    build/bsp/Libraries/STM32F10x_StdPeriph_Driver/src/stm32f10x_rcc.o
RCC_HSEConfig                                     build/bsp/Libraries/STM32F10x_StdPeriph_Driver/src/stm32f10x_rcc.o
RCC_HSICmd                                        build/bsp/Libraries/STM32F10x_StdPeriph_Driver/src/stm32f10x_rcc.o
RCC_IRQHandler                                    build/bsp/Libraries/CMSIS/CM3/DeviceSupport/ST/STM32F10x/startup/gcc_ride7/startup_stm32f10x_hd.o
RCC_ITConfig                                      build/bsp/Libraries/STM32F10x_StdPeriph_Driver/src/stm32f10x_rcc.o
RCC_LSEConfig                                     build/bsp/Libraries/STM32F10x_StdPeriph_Driver/src/stm32f10x_rcc.o
                                                  build/bsp/rtc.o
RCC_LSICmd                                        build/bsp/Libraries/STM32F10x_StdPeriph_Driver/src/stm32f10x_rcc.o
RCC_MCOConfig                                     build/bsp/Libraries/STM32F10x_StdPeriph_Driver/src/stm32f10x_rcc.o
RCC_PCLK1Config                                   build/bsp/Libraries/STM32F10x_StdPeriph_Driver/src/stm32f10x_rcc.o
RCC_PCLK2Config                                   build/bsp/Libraries/STM32F10x_StdPeriph_Driver/src/stm32f10x_rcc.o
RCC_PLLCmd                                        build/bsp/Libraries/STM32F10x_StdPeriph_Driver/src/stm32f10x_rcc.o
RCC_PLLConfig                                     build/bsp/Libraries/STM32F10x_StdPeriph_Driver/src/stm32f10x_rcc.o
RCC_RTCCLKCmd                                     build/bsp/Libraries/STM32F10x_StdPeriph_Driver/src/stm32f10x_rcc.o
                                                  build/bsp/rtc.o
RCC_RTCCLKConfig                                  build/bsp/Libraries/STM32F10x_StdPeriph_Driver/src/stm32f10x_rcc.o
                                                  build/bsp/rtc.o
RCC_SYSCLKConfig                                  build/bsp/Libraries/STM32F10x_StdPeriph_Driver/src/stm32f10x_rcc.o
RCC_USBCLKConfig                                  build/bsp/Libraries/STM32F10x_StdPeriph_Driver/src/stm32f10x_rcc.o
RCC_WaitForHSEStartUp                             build/bsp/Libraries/STM32F10x_StdPeriph_Driver/src/stm32f10x_rcc.o
RTCAlarm_IRQHandler                               build/bsp/Libraries/CMSIS/CM3/DeviceSupport/ST/STM32F10x/startup/gcc_ride7/startup_stm32f10x_hd.o
RTC_ClearFlag                                     build/bsp/Libraries/STM32F10x_StdPeriph_Driver/src/stm32f10x_rtc.o
RTC_ClearITPendingBit                             build/bsp/Libraries/STM32F10x_StdPeriph_Driver/src/stm32f10x_rtc.o
RTC_Configuration                                 build/bsp/rtc.o
RTC_EnterConfigMode                               build/bsp/Libraries/STM32F10x_StdPeriph_Driver/src/stm32f10x_rtc.o
RTC_ExitConfigMode                                build/bsp/Libraries/STM32F10x_StdPeriph_Driver/src/stm32f10x_rtc.o
RTC_GetCounter                                    build/bsp/Libraries/STM32F10x_StdPeriph_Driver/src/stm32f10x_rtc.o
                                                  build/bsp/rtc.o
RTC_GetDivider                                    build/bsp/Libraries/STM32F10x_StdPeriph_Driver/src/stm32f10x_rtc.o
RTC_GetFlagStatus                                 build/bsp/Libraries/STM32F10x_StdPeriph_Driver/src/stm32f10x_rtc.o
RTC_GetITStatus                                   build/bsp/Libraries/STM32F10x_StdPeriph_Driver/src/stm32f10x_rtc.o
RTC_IRQHandler                                    build/bsp/Libraries/CMSIS/CM3/DeviceSupport/ST/STM32F10x/startup/gcc_ride7/startup_stm32f10x_hd.o
RTC_ITConfig                                      build/bsp/Libraries/STM32F10x_StdPeriph_Driver/src/stm32f10x_rtc.o
RTC_SetAlarm                                      build/bsp/Libraries/STM32F10x_StdPeriph_Driver/src/stm32f10x_rtc.o
RTC_SetCounter                                    build/bsp/Libraries/STM32F10x_StdPeriph_Driver/src/stm32f10x_rtc.o
                                                  build/bsp/rtc.o
RTC_SetPrescaler                                  build/bsp/Libraries/STM32F10x_StdPeriph_Driver/src/stm32f10x_rtc.o
                                                  build/bsp/rtc.o
RTC_WaitForLastTask                               build/bsp/Libraries/STM32F10x_StdPeriph_Driver/src/stm32f10x_rtc.o
                                                  build/bsp/rtc.o
RTC_WaitForSynchro                                build/bsp/Libraries/STM32F10x_StdPeriph_Driver/src/stm32f10x_rtc.o
                                                  build/bsp/rtc.o
Reset_Handler                                     build/bsp/Libraries/CMSIS/CM3/DeviceSupport/ST/STM32F10x/startup/gcc_ride7/startup_stm32f10x_hd.o
SDIO_CEATAITCmd                                   build/bsp/Libraries/STM32F10x_StdPeriph_Driver/src/stm32f10x_sdio.o
SDIO_ClearFlag                                    build/bsp/Libraries/STM32F10x_StdPeriph_Driver/src/stm32f10x_sdio.o
SDIO_ClearITPendingBit                            build/bsp/Libraries/STM32F10x_StdPeriph_Driver/src/stm32f10x_sdio.o
SDIO_ClockCmd                                     build/bsp/Libraries/STM32F10x_StdPeriph_Driver/src/stm32f10x_sdio.o
SDIO_CmdStructInit                                build/bsp/Libraries/STM32F10x_StdPeriph_Driver/src/stm32f10x_sdio.o
SDIO_CommandCompletionCmd                         build/bsp/Libraries/STM32F10x_StdPeriph_Driver/src/stm32f10x_sdio.o
SDIO_DMACmd                                       build/bsp/Libraries/STM32F10x_StdPeriph_Driver/src/stm32f10x_sdio.o
SDIO_DataConfig                                   build/bsp/Libraries/STM32F10x_StdPeriph_Driver/src/stm32f10x_sdio.o
SDIO_DataStructInit                               build/bsp/Libraries/STM32F10x_StdPeriph_Driver/src/stm32f10x_sdio.o
SDIO_DeInit                                       build/bsp/Libraries/STM32F10x_StdPeriph_Driver/src/stm32f10x_sdio.o
SDIO_GetCommandResponse                           build/bsp/Libraries/STM32F10x_StdPeriph_Driver/src/stm32f10x_sdio.o
SDIO_GetDataCounter                               build/bsp/Libraries/STM32F10x_StdPeriph_Driver/src/stm32f10x_sdio.o
SDIO_GetFIFOCount                                 build/bsp/Libraries/STM32F10x_StdPeriph_Driver/src/stm32f10x_sdio.o
SDIO_GetFlagStatus                                build/bsp/Libraries/STM32F10x_StdPeriph_Driver/src/stm32f10x_sdio.o
SDIO_GetITStatus                                  build/bsp/Libraries/STM32F10x_StdPeriph_Driver/src/stm32f10x_sdio.o
SDIO_GetPowerState                                build/bsp/Libraries/STM32F10x_StdPeriph_Driver/src/stm32f10x_sdio.o
SDIO_GetResponse                                  build/bsp/Libraries/STM32F10x_StdPeriph_Driver/src/stm32f10x_sdio.o
SDIO_IRQHandler                                   build/bsp/Libraries/CMSIS/CM3/DeviceSupport/ST/STM32F10x/startup/gcc_ride7/startup_stm32f10x_hd.o
SDIO_ITConfig                                     build/bsp/Libraries/STM32F10x_StdPeriph_Driver/src/stm32f10x_sdio.o
SDIO_Init                                         build/bsp/Libraries/STM32F10x_StdPeriph_Driver/src/stm32f10x_sdio.o
SDIO_ReadData                                     build/bsp/Libraries/STM32F10x_StdPeriph_Driver/src/stm32f10x_sdio.o
SDIO_SendCEATACmd                                 build/bsp/Libraries/STM32F10x_StdPeriph_Driver/src/stm32f10x_sdio.o
SDIO_SendCommand                                  build/bsp/Libraries/STM32F10x_StdPeriph_Driver/src/stm32f10x_sdio.o
SDIO_SendSDIOSuspendCmd                           build/bsp/Libraries/STM32F10x_StdPeriph_Driver/src/stm32f10x_sdio.o
SDIO_SetPowerState                                build/bsp/Libraries/STM32F10x_StdPeriph_Driver/src/stm32f10x_sdio.o
SDIO_SetSDIOOperation                             build/bsp/Libraries/STM32F10x_StdPeriph_Driver/src/stm32f10x_sdio.o
SDIO_SetSDIOReadWaitMode                          build/bsp/Libraries/STM32F10x_StdPeriph_Driver/src/stm32f10x_sdio.o
SDIO_StartSDIOReadWait                            build/bsp/Libraries/STM32F10x_StdPeriph_Driver/src/stm32f10x_sdio.o
SDIO_StopSDIOReadWait                             build/bsp/Libraries/STM32F10x_StdPeriph_Driver/src/stm32f10x_sdio.o
SDIO_StructInit                                   build/bsp/Libraries/STM32F10x_StdPeriph_Driver/src/stm32f10x_sdio.o
SDIO_WriteData                                    build/bsp/Libraries/STM32F10x_StdPeriph_Driver/src/stm32f10x_sdio.o
SPI1_IRQHandler                                   build/bsp/Libraries/CMSIS/CM3/DeviceSupport/ST/STM32F10x/startup/gcc_ride7/startup_stm32f10x_hd.o
SPI2_IRQHandler                                   build/bsp/Libraries/CMSIS/CM3/DeviceSupport/ST/STM32F10x/startup/gcc_ride7/startup_stm32f10x_hd.o
SPI3_IRQHandler                                   build/bsp/Libraries/CMSIS/CM3/DeviceSupport/ST/STM32F10x/startup/gcc_ride7/startup_stm32f10x_hd.o
SPI_BiDirectionalLineConfig                       build/bsp/Libraries/STM32F10x_StdPeriph_Driver/src/stm32f10x_spi.o
SPI_CalculateCRC                                  build/bsp/Libraries/STM32F10x_StdPeriph_Driver/src/stm32f10x_spi.o
SPI_Cmd                                           build/bsp/Libraries/STM32F10x_StdPeriph_Driver/src/stm32f10x_spi.o
SPI_DataSizeConfig                                build/bsp/Libraries/STM32F10x_StdPeriph_Driver/src/stm32f10x_spi.o
SPI_GetCRC                                        build/bsp/Libraries/STM32F10x_StdPeriph_Driver/src/stm32f10x_spi.o
SPI_GetCRCPolynomial                              build/bsp/Libraries/STM32F10x_StdPeriph_Driver/src/stm32f10x_spi.o
SPI_I2S_ClearFlag                                 build/bsp/Libraries/STM32F10x_StdPeriph_Driver/src/stm32f10x_spi.o
SPI_I2S_ClearITPendingBit                         build/bsp/Libraries/STM32F10x_StdPeriph_Driver/src/stm32f10x_spi.o
SPI_I2S_DMACmd                                    build/bsp/Libraries/STM32F10x_StdPeriph_Driver/src/stm32f10x_spi.o
SPI_I2S_DeInit                                    build/bsp/Libraries/STM32F10x_StdPeriph_Driver/src/stm32f10x_spi.o
SPI_I2S_GetFlagStatus                             build/bsp/Libraries/STM32F10x_StdPeriph_Driver/src/stm32f10x_spi.o
SPI_I2S_GetITStatus                               build/bsp/Libraries/STM32F10x_StdPeriph_Driver/src/stm32f10x_spi.o
SPI_I2S_ITConfig                                  build/bsp/Libraries/STM32F10x_StdPeriph_Driver/src/stm32f10x_spi.o
SPI_I2S_ReceiveData                               build/bsp/Libraries/STM32F10x_StdPeriph_Driver/src/stm32f10x_spi.o
SPI_I2S_SendData                                  build/bsp/Libraries/STM32F10x_StdPeriph_Driver/src/stm32f10x_spi.o
SPI_Init                                          build/bsp/Libraries/STM32F10x_StdPeriph_Driver/src/stm32f10x_spi.o
SPI_NSSInternalSoftwareConfig                     build/bsp/Libraries/STM32F10x_StdPeriph_Driver/src/stm32f10x_spi.o
SPI_SSOutputCmd                                   build/bsp/Libraries/STM32F10x_StdPeriph_Driver/src/stm32f10x_spi.o
SPI_StructInit                                    build/bsp/Libraries/STM32F10x_StdPeriph_Driver/src/stm32f10x_spi.o
SPI_TransmitCRC                                   build/bsp/Libraries/STM32F10x_StdPeriph_Driver/src/stm32f10x_spi.o
SVC_Handler                                       build/bsp/stm32f10x_it.o
SysTick_CLKSourceConfig                           build/bsp/Libraries/STM32F10x_StdPeriph_Driver/src/misc.o
SysTick_Handler                                   build/bsp/stm32f10x_it.o
SystemCoreClock                                   build/bsp/Libraries/CMSIS/CM3/DeviceSupport/ST/STM32F10x/system_stm32f10x.o
                                                  build/bsp/board.o
SystemCoreClockUpdate                             build/bsp/Libraries/CMSIS/CM3/DeviceSupport/ST/STM32F10x/system_stm32f10x.o
SystemInit                                        build/bsp/Libraries/CMSIS/CM3/DeviceSupport/ST/STM32F10x/system_stm32f10x.o
                                                  build/bsp/Libraries/CMSIS/CM3/DeviceSupport/ST/STM32F10x/startup/gcc_ride7/startup_stm32f10x_hd.o
TAMPER_IRQHandler                                 build/bsp/Libraries/CMSIS/CM3/DeviceSupport/ST/STM32F10x/startup/gcc_ride7/startup_stm32f10x_hd.o
TIM1_BRK_IRQHandler                               build/bsp/Libraries/CMSIS/CM3/DeviceSupport/ST/STM32F10x/startup/gcc_ride7/startup_stm32f10x_hd.o
TIM1_CC_IRQHandler                                build/bsp/Libraries/CMSIS/CM3/DeviceSupport/ST/STM32F10x/startup/gcc_ride7/startup_stm32f10x_hd.o
TIM1_TRG_COM_IRQHandler                           build/bsp/Libraries/CMSIS/CM3/DeviceSupport/ST/STM32F10x/startup/gcc_ride7/startup_stm32f10x_hd.o
TIM1_UP_IRQHandler                                build/bsp/Libraries/CMSIS/CM3/DeviceSupport/ST/STM32F10x/startup/gcc_ride7/startup_stm32f10x_hd.o
TIM2_IRQHandler                                   build/bsp/Libraries/CMSIS/CM3/DeviceSupport/ST/STM32F10x/startup/gcc_ride7/startup_stm32f10x_hd.o
TIM3_IRQHandler                                   build/bsp/Libraries/CMSIS/CM3/DeviceSupport/ST/STM32F10x/startup/gcc_ride7/startup_stm32f10x_hd.o
TIM4_IRQHandler                                   build/bsp/Libraries/CMSIS/CM3/DeviceSupport/ST/STM32F10x/startup/gcc_ride7/startup_stm32f10x_hd.o
TIM5_IRQHandler                                   build/bsp/Libraries/CMSIS/CM3/DeviceSupport/ST/STM32F10x/startup/gcc_ride7/startup_stm32f10x_hd.o
TIM6_IRQHandler                                   build/bsp/Libraries/CMSIS/CM3/DeviceSupport/ST/STM32F10x/startup/gcc_ride7/startup_stm32f10x_hd.o
TIM7_IRQHandler                                   build/bsp/Libraries/CMSIS/CM3/DeviceSupport/ST/STM32F10x/startup/gcc_ride7/startup_stm32f10x_hd.o
TIM8_BRK_IRQHandler                               build/bsp/Libraries/CMSIS/CM3/DeviceSupport/ST/STM32F10x/startup/gcc_ride7/startup_stm32f10x_hd.o
TIM8_CC_IRQHandler                                build/bsp/Libraries/CMSIS/CM3/DeviceSupport/ST/STM32F10x/startup/gcc_ride7/startup_stm32f10x_hd.o
TIM8_TRG_COM_IRQHandler                           build/bsp/Libraries/CMSIS/CM3/DeviceSupport/ST/STM32F10x/startup/gcc_ride7/startup_stm32f10x_hd.o
TIM8_UP_IRQHandler                                build/bsp/Libraries/CMSIS/CM3/DeviceSupport/ST/STM32F10x/startup/gcc_ride7/startup_stm32f10x_hd.o
TIM_ARRPreloadConfig                              build/bsp/Libraries/STM32F10x_StdPeriph_Driver/src/stm32f10x_tim.o
TIM_BDTRConfig                                    build/bsp/Libraries/STM32F10x_StdPeriph_Driver/src/stm32f10x_tim.o
TIM_BDTRStructInit                                build/bsp/Libraries/STM32F10x_StdPeriph_Driver/src/stm32f10x_tim.o
TIM_CCPreloadControl                              build/bsp/Libraries/STM32F10x_StdPeriph_Driver/src/stm32f10x_tim.o
TIM_CCxCmd                                        build/bsp/Libraries/STM32F10x_StdPeriph_Driver/src/stm32f10x_tim.o
TIM_CCxNCmd                                       build/bsp/Libraries/STM32F10x_StdPeriph_Driver/src/stm32f10x_tim.o
TIM_ClearFlag                                     build/bsp/Libraries/STM32F10x_StdPeriph_Driver/src/stm32f10x_tim.o
TIM_ClearITPendingBit                             build/bsp/Libraries/STM32F10x_StdPeriph_Driver/src/stm32f10x_tim.o
TIM_ClearOC1Ref                                   build/bsp/Libraries/STM32F10x_StdPeriph_Driver/src/stm32f10x_tim.o
TIM_ClearOC2Ref                                   build/bsp/Libraries/STM32F10x_StdPeriph_Driver/src/stm32f10x_tim.o
TIM_ClearOC3Ref                                   build/bsp/Libraries/STM32F10x_StdPeriph_Driver/src/stm32f10x_tim.o
TIM_ClearOC4Ref                                   build/bsp/Libraries/STM32F10x_StdPeriph_Driver/src/stm32f10x_tim.o
TIM_Cmd                                           build/bsp/Libraries/STM32F10x_StdPeriph_Driver/src/stm32f10x_tim.o
TIM_CounterModeConfig                             build/bsp/Libraries/STM32F10x_StdPeriph_Driver/src/stm32f10x_tim.o
TIM_CtrlPWMOutputs                                build/bsp/Libraries/STM32F10x_StdPeriph_Driver/src/stm32f10x_tim.o
TIM_DMACmd                                        build/bsp/Libraries/STM32F10x_StdPeriph_Driver/src/stm32f10x_tim.o
TIM_DMAConfig                                     build/bsp/Libraries/STM32F10x_StdPeriph_Driver/src/stm32f10x_tim.o
TIM_DeInit                                        build/bsp/Libraries/STM32F10x_StdPeriph_Driver/src/stm32f10x_tim.o
TIM_ETRClockMode1Config                           build/bsp/Libraries/STM32F10x_StdPeriph_Driver/src/stm32f10x_tim.o
TIM_ETRClockMode2Config                           build/bsp/Libraries/STM32F10x_StdPeriph_Driver/src/stm32f10x_tim.o
TIM_ETRConfig                                     build/bsp/Libraries/STM32F10x_StdPeriph_Driver/src/stm32f10x_tim.o
TIM_EncoderInterfaceConfig                        build/bsp/Libraries/STM32F10x_StdPeriph_Driver/src/stm32f10x_tim.o
TIM_ForcedOC1Config                               build/bsp/Libraries/STM32F10x_StdPeriph_Driver/src/stm32f10x_tim.o
TIM_ForcedOC2Config                               build/bsp/Libraries/STM32F10x_StdPeriph_Driver/src/stm32f10x_tim.o
TIM_ForcedOC3Config                               build/bsp/Libraries/STM32F10x_StdPeriph_Driver/src/stm32f10x_tim.o
TIM_ForcedOC4Config                               build/bsp/Libraries/STM32F10x_StdPeriph_Driver/src/stm32f10x_tim.o
TIM_GenerateEvent                                 build/bsp/Libraries/STM32F10x_StdPeriph_Driver/src/stm32f10x_tim.o
TIM_GetCapture1                                   build/bsp/Libraries/STM32F10x_StdPeriph_Driver/src/stm32f10x_tim.o
TIM_GetCapture2                                   build/bsp/Libraries/STM32F10x_StdPeriph_Driver/src/stm32f10x_tim.o
TIM_GetCapture3                                   build/bsp/Libraries/STM32F10x_StdPeriph_Driver/src/stm32f10x_tim.o
TIM_GetCapture4                                   build/bsp/Libraries/STM32F10x_StdPeriph_Driver/src/stm32f10x_tim.o
TIM_GetCounter                                    build/bsp/Libraries/STM32F10x_StdPeriph_Driver/src/stm32f10x_tim.o
TIM_GetFlagStatus                                 build/bsp/Libraries/STM32F10x_StdPeriph_Driver/src/stm32f10x_tim.o
TIM_GetITStatus                                   build/bsp/Libraries/STM32F10x_StdPeriph_Driver/src/stm32f10x_tim.o
TIM_GetPrescaler                                  build/bsp/Libraries/STM32F10x_StdPeriph_Driver/src/stm32f10x_tim.o
TIM_ICInit                                        build/bsp/Libraries/STM32F10x_StdPeriph_Driver/src/stm32f10x_tim.o
TIM_ICStructInit                                  build/bsp/Libraries/STM32F10x_StdPeriph_Driver/src/stm32f10x_tim.o
TIM_ITConfig                                      build/bsp/Libraries/STM32F10x_StdPeriph_Driver/src/stm32f10x_tim.o
TIM_ITRxExternalClockConfig                       build/bsp/Libraries/STM32F10x_StdPeriph_Driver/src/stm32f10x_tim.o
TIM_InternalClockConfig                           build/bsp/Libraries/STM32F10x_StdPeriph_Driver/src/stm32f10x_tim.o
TIM_OC1FastConfig                                 build/bsp/Libraries/STM32F10x_StdPeriph_Driver/src/stm32f10x_tim.o
TIM_OC1Init                                       build/bsp/Libraries/STM32F10x_StdPeriph_Driver/src/stm32f10x_tim.o
TIM_OC1NPolarityConfig                            build/bsp/Libraries/STM32F10x_StdPeriph_Driver/src/stm32f10x_tim.o
TIM_OC1PolarityConfig                             build/bsp/Libraries/STM32F10x_StdPeriph_Driver/src/stm32f10x_tim.o
TIM_OC1PreloadConfig                              build/bsp/Libraries/STM32F10x_StdPeriph_Driver/src/stm32f10x_tim.o
TIM_OC2FastConfig                                 build/bsp/Libraries/STM32F10x_StdPeriph_Driver/src/stm32f10x_tim.o
TIM_OC2Init                                       build/bsp/Libraries/STM32F10x_StdPeriph_Driver/src/stm32f10x_tim.o
TIM_OC2NPolarityConfig                            build/bsp/Libraries/STM32F10x_StdPeriph_Driver/src/stm32f10x_tim.o
TIM_OC2PolarityConfig                             build/bsp/Libraries/STM32F10x_StdPeriph_Driver/src/stm32f10x_tim.o
TIM_OC2PreloadConfig                              build/bsp/Libraries/STM32F10x_StdPeriph_Driver/src/stm32f10x_tim.o
TIM_OC3FastConfig                                 build/bsp/Libraries/STM32F10x_StdPeriph_Driver/src/stm32f10x_tim.o
TIM_OC3Init                                       build/bsp/Libraries/STM32F10x_StdPeriph_Driver/src/stm32f10x_tim.o
TIM_OC3NPolarityConfig                            build/bsp/Libraries/STM32F10x_StdPeriph_Driver/src/stm32f10x_tim.o
TIM_OC3PolarityConfig                             build/bsp/Libraries/STM32F10x_StdPeriph_Driver/src/stm32f10x_tim.o
TIM_OC3PreloadConfig                              build/bsp/Libraries/STM32F10x_StdPeriph_Driver/src/stm32f10x_tim.o
TIM_OC4FastConfig                                 build/bsp/Libraries/STM32F10x_StdPeriph_Driver/src/stm32f10x_tim.o
TIM_OC4Init                                       build/bsp/Libraries/STM32F10x_StdPeriph_Driver/src/stm32f10x_tim.o
TIM_OC4PolarityConfig                             build/bsp/Libraries/STM32F10x_StdPeriph_Driver/src/stm32f10x_tim.o
TIM_OC4PreloadConfig                              build/bsp/Libraries/STM32F10x_StdPeriph_Driver/src/stm32f10x_tim.o
TIM_OCStructInit                                  build/bsp/Libraries/STM32F10x_StdPeriph_Driver/src/stm32f10x_tim.o
TIM_PWMIConfig                                    build/bsp/Libraries/STM32F10x_StdPeriph_Driver/src/stm32f10x_tim.o
TIM_PrescalerConfig                               build/bsp/Libraries/STM32F10x_StdPeriph_Driver/src/stm32f10x_tim.o
TIM_SelectCCDMA                                   build/bsp/Libraries/STM32F10x_StdPeriph_Driver/src/stm32f10x_tim.o
TIM_SelectCOM                                     build/bsp/Libraries/STM32F10x_StdPeriph_Driver/src/stm32f10x_tim.o
TIM_SelectHallSensor                              build/bsp/Libraries/STM32F10x_StdPeriph_Driver/src/stm32f10x_tim.o
TIM_SelectInputTrigger                            build/bsp/Libraries/STM32F10x_StdPeriph_Driver/src/stm32f10x_tim.o
TIM_SelectMasterSlaveMode                         build/bsp/Libraries/STM32F10x_StdPeriph_Driver/src/stm32f10x_tim.o
TIM_SelectOCxM                                    build/bsp/Libraries/STM32F10x_StdPeriph_Driver/src/stm32f10x_tim.o
TIM_SelectOnePulseMode                            build/bsp/Libraries/STM32F10x_StdPeriph_Driver/src/stm32f10x_tim.o
TIM_SelectOutputTrigger                           build/bsp/Libraries/STM32F10x_StdPeriph_Driver/src/stm32f10x_tim.o
TIM_SelectSlaveMode                               build/bsp/Libraries/STM32F10x_StdPeriph_Driver/src/stm32f10x_tim.o
TIM_SetAutoreload                                 build/bsp/Libraries/STM32F10x_StdPeriph_Driver/src/stm32f10x_tim.o
TIM_SetClockDivision                              build/bsp/Libraries/STM32F10x_StdPeriph_Driver/src/stm32f10x_tim.o
TIM_SetCompare1                                   build/bsp/Libraries/STM32F10x_StdPeriph_Driver/src/stm32f10x_tim.o
TIM_SetCompare2                                   build/bsp/Libraries/STM32F10x_StdPeriph_Driver/src/stm32f10x_tim.o
TIM_SetCompare3                                   build/bsp/Libraries/STM32F10x_StdPeriph_Driver/src/stm32f10x_tim.o
TIM_SetCompare4                                   build/bsp/Libraries/STM32F10x_StdPeriph_Driver/src/stm32f10x_tim.o
TIM_SetCounter                                    build/bsp/Libraries/STM32F10x_StdPeriph_Driver/src/stm32f10x_tim.o
TIM_SetIC1Prescaler                               build/bsp/Libraries/STM32F10x_StdPeriph_Driver/src/stm32f10x_tim.o
TIM_SetIC2Prescaler                               build/bsp/Libraries/STM32F10x_StdPeriph_Driver/src/stm32f10x_tim.o
TIM_SetIC3Prescaler                               build/bsp/Libraries/STM32F10x_StdPeriph_Driver/src/stm32f10x_tim.o
TIM_SetIC4Prescaler                               build/bsp/Libraries/STM32F10x_StdPeriph_Driver/src/stm32f10x_tim.o
TIM_TIxExternalClockConfig                        build/bsp/Libraries/STM32F10x_StdPeriph_Driver/src/stm32f10x_tim.o
TIM_TimeBaseInit                                  build/bsp/Libraries/STM32F10x_StdPeriph_Driver/src/stm32f10x_tim.o
TIM_TimeBaseStructInit                            build/bsp/Libraries/STM32F10x_StdPeriph_Driver/src/stm32f10x_tim.o
TIM_UpdateDisableConfig                           build/bsp/Libraries/STM32F10x_StdPeriph_Driver/src/stm32f10x_tim.o
TIM_UpdateRequestConfig                           build/bsp/Libraries/STM32F10x_StdPeriph_Driver/src/stm32f10x_tim.o
UART4_IRQHandler                                  build/bsp/Libraries/CMSIS/CM3/DeviceSupport/ST/STM32F10x/startup/gcc_ride7/startup_stm32f10x_hd.o
UART5_IRQHandler                                  build/bsp/Libraries/CMSIS/CM3/DeviceSupport/ST/STM32F10x/startup/gcc_ride7/startup_stm32f10x_hd.o
USART1_IRQHandler                                 build/bsp/stm32f10x_it.o
USART2_IRQHandler                                 build/bsp/stm32f10x_it.o
USART3_IRQHandler                                 build/bsp/stm32f10x_it.o
USART_ClearFlag                                   build/bsp/Libraries/STM32F10x_StdPeriph_Driver/src/stm32f10x_usart.o
USART_ClearITPendingBit                           build/bsp/Libraries/STM32F10x_StdPeriph_Driver/src/stm32f10x_usart.o
                                                  build/bsp/serial.o
USART_ClockInit                                   build/bsp/Libraries/STM32F10x_StdPeriph_Driver/src/stm32f10x_usart.o
                                                  build/bsp/usart.o
USART_ClockStructInit                             build/bsp/Libraries/STM32F10x_StdPeriph_Driver/src/stm32f10x_usart.o
USART_Cmd                                         build/bsp/Libraries/STM32F10x_StdPeriph_Driver/src/stm32f10x_usart.o
                                                  build/bsp/serial.o
USART_DMACmd                                      build/bsp/Libraries/STM32F10x_StdPeriph_Driver/src/stm32f10x_usart.o
USART_DeInit                                      build/bsp/Libraries/STM32F10x_StdPeriph_Driver/src/stm32f10x_usart.o
USART_GetFlagStatus                               build/bsp/Libraries/STM32F10x_StdPeriph_Driver/src/stm32f10x_usart.o
USART_GetITStatus                                 build/bsp/Libraries/STM32F10x_StdPeriph_Driver/src/stm32f10x_usart.o
                                                  build/bsp/serial.o
USART_HalfDuplexCmd                               build/bsp/Libraries/STM32F10x_StdPeriph_Driver/src/stm32f10x_usart.o
USART_ITConfig                                    build/bsp/Libraries/STM32F10x_StdPeriph_Driver/src/stm32f10x_usart.o
                                                  build/bsp/usart.o
USART_Init                                        build/bsp/Libraries/STM32F10x_StdPeriph_Driver/src/stm32f10x_usart.o
                                                  build/bsp/usart.o
USART_IrDACmd                                     build/bsp/Libraries/STM32F10x_StdPeriph_Driver/src/stm32f10x_usart.o
USART_IrDAConfig                                  build/bsp/Libraries/STM32F10x_StdPeriph_Driver/src/stm32f10x_usart.o
USART_LINBreakDetectLengthConfig                  build/bsp/Libraries/STM32F10x_StdPeriph_Driver/src/stm32f10x_usart.o
USART_LINCmd                                      build/bsp/Libraries/STM32F10x_StdPeriph_Driver/src/stm32f10x_usart.o
USART_OneBitMethodCmd                             build/bsp/Libraries/STM32F10x_StdPeriph_Driver/src/stm32f10x_usart.o
USART_OverSampling8Cmd                            build/bsp/Libraries/STM32F10x_StdPeriph_Driver/src/stm32f10x_usart.o
USART_ReceiveData                                 build/bsp/Libraries/STM32F10x_StdPeriph_Driver/src/stm32f10x_usart.o
USART_ReceiverWakeUpCmd                           build/bsp/Libraries/STM32F10x_StdPeriph_Driver/src/stm32f10x_usart.o
USART_SendBreak                                   build/bsp/Libraries/STM32F10x_StdPeriph_Driver/src/stm32f10x_usart.o
USART_SendData                                    build/bsp/Libraries/STM32F10x_StdPeriph_Driver/src/stm32f10x_usart.o
USART_SetAddress                                  build/bsp/Libraries/STM32F10x_StdPeriph_Driver/src/stm32f10x_usart.o
USART_SetGuardTime                                build/bsp/Libraries/STM32F10x_StdPeriph_Driver/src/stm32f10x_usart.o
USART_SetPrescaler                                build/bsp/Libraries/STM32F10x_StdPeriph_Driver/src/stm32f10x_usart.o
USART_SmartCardCmd                                build/bsp/Libraries/STM32F10x_StdPeriph_Driver/src/stm32f10x_usart.o
USART_SmartCardNACKCmd                            build/bsp/Libraries/STM32F10x_StdPeriph_Driver/src/stm32f10x_usart.o
USART_StructInit                                  build/bsp/Libraries/STM32F10x_StdPeriph_Driver/src/stm32f10x_usart.o
USART_WakeUpConfig                                build/bsp/Libraries/STM32F10x_StdPeriph_Driver/src/stm32f10x_usart.o
USBWakeUp_IRQHandler                              build/bsp/Libraries/CMSIS/CM3/DeviceSupport/ST/STM32F10x/startup/gcc_ride7/startup_stm32f10x_hd.o
USB_HP_CAN1_TX_IRQHandler                         build/bsp/Libraries/CMSIS/CM3/DeviceSupport/ST/STM32F10x/startup/gcc_ride7/startup_stm32f10x_hd.o
USB_LP_CAN1_RX0_IRQHandler                        build/bsp/Libraries/CMSIS/CM3/DeviceSupport/ST/STM32F10x/startup/gcc_ride7/startup_stm32f10x_hd.o
UsageFault_Handler                                build/bsp/stm32f10x_it.o
WWDG_ClearFlag                                    build/bsp/Libraries/STM32F10x_StdPeriph_Driver/src/stm32f10x_wwdg.o
WWDG_DeInit                                       build/bsp/Libraries/STM32F10x_StdPeriph_Driver/src/stm32f10x_wwdg.o
WWDG_Enable                                       build/bsp/Libraries/STM32F10x_StdPeriph_Driver/src/stm32f10x_wwdg.o
WWDG_EnableIT                                     build/bsp/Libraries/STM32F10x_StdPeriph_Driver/src/stm32f10x_wwdg.o
WWDG_GetFlagStatus                                build/bsp/Libraries/STM32F10x_StdPeriph_Driver/src/stm32f10x_wwdg.o
WWDG_IRQHandler                                   build/bsp/Libraries/CMSIS/CM3/DeviceSupport/ST/STM32F10x/startup/gcc_ride7/startup_stm32f10x_hd.o
WWDG_SetCounter                                   build/bsp/Libraries/STM32F10x_StdPeriph_Driver/src/stm32f10x_wwdg.o
WWDG_SetPrescaler                                 build/bsp/Libraries/STM32F10x_StdPeriph_Driver/src/stm32f10x_wwdg.o
WWDG_SetWindowValue                               build/bsp/Libraries/STM32F10x_StdPeriph_Driver/src/stm32f10x_wwdg.o
_Jv_RegisterClasses                               /opt/arm-2012.03/bin/../lib/gcc/arm-none-eabi/4.6.3/thumb2/crtbegin.o
__LDREXB                                          build/bsp/Libraries/CMSIS/CM3/CoreSupport/core_cm3.o
__LDREXH                                          build/bsp/Libraries/CMSIS/CM3/CoreSupport/core_cm3.o
__LDREXW                                          build/bsp/Libraries/CMSIS/CM3/CoreSupport/core_cm3.o
__RBIT                                            build/bsp/Libraries/CMSIS/CM3/CoreSupport/core_cm3.o
__REV                                             build/bsp/Libraries/CMSIS/CM3/CoreSupport/core_cm3.o
__REV16                                           build/bsp/Libraries/CMSIS/CM3/CoreSupport/core_cm3.o
__REVSH                                           build/bsp/Libraries/CMSIS/CM3/CoreSupport/core_cm3.o
__STREXB                                          build/bsp/Libraries/CMSIS/CM3/CoreSupport/core_cm3.o
__STREXH                                          build/bsp/Libraries/CMSIS/CM3/CoreSupport/core_cm3.o
__STREXW                                          build/bsp/Libraries/CMSIS/CM3/CoreSupport/core_cm3.o
__adddf3                                          /opt/arm-2012.03/bin/../lib/gcc/arm-none-eabi/4.6.3/thumb2/libgcc.a(_arm_addsubdf3.o)
__aeabi_d2iz                                      /opt/arm-2012.03/bin/../lib/gcc/arm-none-eabi/4.6.3/thumb2/libgcc.a(_arm_fixdfsi.o)
                                                  build/components/libc/minilibc/math.o
__aeabi_dadd                                      /opt/arm-2012.03/bin/../lib/gcc/arm-none-eabi/4.6.3/thumb2/libgcc.a(_arm_addsubdf3.o)
                                                  build/components/libc/minilibc/math.o
__aeabi_ddiv                                      /opt/arm-2012.03/bin/../lib/gcc/arm-none-eabi/4.6.3/thumb2/libgcc.a(_arm_muldivdf3.o)
__aeabi_dmul                                      /opt/arm-2012.03/bin/../lib/gcc/arm-none-eabi/4.6.3/thumb2/libgcc.a(_arm_muldivdf3.o)
                                                  build/components/libc/minilibc/math.o
__aeabi_drsub                                     /opt/arm-2012.03/bin/../lib/gcc/arm-none-eabi/4.6.3/thumb2/libgcc.a(_arm_addsubdf3.o)
__aeabi_dsub                                      /opt/arm-2012.03/bin/../lib/gcc/arm-none-eabi/4.6.3/thumb2/libgcc.a(_arm_addsubdf3.o)
                                                  build/components/libc/minilibc/math.o
__aeabi_f2d                                       /opt/arm-2012.03/bin/../lib/gcc/arm-none-eabi/4.6.3/thumb2/libgcc.a(_arm_addsubdf3.o)
__aeabi_i2d                                       /opt/arm-2012.03/bin/../lib/gcc/arm-none-eabi/4.6.3/thumb2/libgcc.a(_arm_addsubdf3.o)
                                                  build/components/libc/minilibc/math.o
__aeabi_l2d                                       /opt/arm-2012.03/bin/../lib/gcc/arm-none-eabi/4.6.3/thumb2/libgcc.a(_arm_addsubdf3.o)
__aeabi_ui2d                                      /opt/arm-2012.03/bin/../lib/gcc/arm-none-eabi/4.6.3/thumb2/libgcc.a(_arm_addsubdf3.o)
__aeabi_ul2d                                      /opt/arm-2012.03/bin/../lib/gcc/arm-none-eabi/4.6.3/thumb2/libgcc.a(_arm_addsubdf3.o)
__bss_end                                         build/bsp/startup.o
__deregister_frame_info                           /opt/arm-2012.03/bin/../lib/gcc/arm-none-eabi/4.6.3/thumb2/crtbegin.o
__div0                                            build/libcpu/arm/common/div0.o
__divdf3                                          /opt/arm-2012.03/bin/../lib/gcc/arm-none-eabi/4.6.3/thumb2/libgcc.a(_arm_muldivdf3.o)
__dso_handle                                      /opt/arm-2012.03/bin/../lib/gcc/arm-none-eabi/4.6.3/thumb2/crtbegin.o
__extendsfdf2                                     /opt/arm-2012.03/bin/../lib/gcc/arm-none-eabi/4.6.3/thumb2/libgcc.a(_arm_addsubdf3.o)
__fixdfsi                                         /opt/arm-2012.03/bin/../lib/gcc/arm-none-eabi/4.6.3/thumb2/libgcc.a(_arm_fixdfsi.o)
__floatdidf                                       /opt/arm-2012.03/bin/../lib/gcc/arm-none-eabi/4.6.3/thumb2/libgcc.a(_arm_addsubdf3.o)
__floatsidf                                       /opt/arm-2012.03/bin/../lib/gcc/arm-none-eabi/4.6.3/thumb2/libgcc.a(_arm_addsubdf3.o)
__floatundidf                                     /opt/arm-2012.03/bin/../lib/gcc/arm-none-eabi/4.6.3/thumb2/libgcc.a(_arm_addsubdf3.o)
__floatunsidf                                     /opt/arm-2012.03/bin/../lib/gcc/arm-none-eabi/4.6.3/thumb2/libgcc.a(_arm_addsubdf3.o)
__fsym_hello                                      build/components/finsh/libfinsh.a(cmd.o)
__fsym_hello_desc                                 build/components/finsh/libfinsh.a(cmd.o)
__fsym_hello_name                                 build/components/finsh/libfinsh.a(cmd.o)
__fsym_led                                        build/bsp/led.o
__fsym_led_desc                                   build/bsp/led.o
__fsym_led_name                                   build/bsp/led.o
__fsym_list                                       build/components/finsh/libfinsh.a(cmd.o)
__fsym_list_date                                  build/bsp/rtc.o
__fsym_list_date_desc                             build/bsp/rtc.o
__fsym_list_date_name                             build/bsp/rtc.o
__fsym_list_desc                                  build/components/finsh/libfinsh.a(cmd.o)
__fsym_list_device                                build/components/finsh/libfinsh.a(cmd.o)
__fsym_list_device_desc                           build/components/finsh/libfinsh.a(cmd.o)
__fsym_list_device_name                           build/components/finsh/libfinsh.a(cmd.o)
__fsym_list_event                                 build/components/finsh/libfinsh.a(cmd.o)
__fsym_list_event_desc                            build/components/finsh/libfinsh.a(cmd.o)
__fsym_list_event_name                            build/components/finsh/libfinsh.a(cmd.o)
__fsym_list_mailbox                               build/components/finsh/libfinsh.a(cmd.o)
__fsym_list_mailbox_desc                          build/components/finsh/libfinsh.a(cmd.o)
__fsym_list_mailbox_name                          build/components/finsh/libfinsh.a(cmd.o)
__fsym_list_mem                                   build/src/mem.o
__fsym_list_mem_desc                              build/src/mem.o
__fsym_list_mem_name                              build/src/mem.o
__fsym_list_mempool                               build/components/finsh/libfinsh.a(cmd.o)
__fsym_list_mempool_desc                          build/components/finsh/libfinsh.a(cmd.o)
__fsym_list_mempool_name                          build/components/finsh/libfinsh.a(cmd.o)
__fsym_list_msgqueue                              build/components/finsh/libfinsh.a(cmd.o)
__fsym_list_msgqueue_desc                         build/components/finsh/libfinsh.a(cmd.o)
__fsym_list_msgqueue_name                         build/components/finsh/libfinsh.a(cmd.o)
__fsym_list_mutex                                 build/components/finsh/libfinsh.a(cmd.o)
__fsym_list_mutex_desc                            build/components/finsh/libfinsh.a(cmd.o)
__fsym_list_mutex_name                            build/components/finsh/libfinsh.a(cmd.o)
__fsym_list_name                                  build/components/finsh/libfinsh.a(cmd.o)
__fsym_list_sem                                   build/components/finsh/libfinsh.a(cmd.o)
__fsym_list_sem_desc                              build/components/finsh/libfinsh.a(cmd.o)
__fsym_list_sem_name                              build/components/finsh/libfinsh.a(cmd.o)
__fsym_list_thread                                build/components/finsh/libfinsh.a(cmd.o)
__fsym_list_thread_desc                           build/components/finsh/libfinsh.a(cmd.o)
__fsym_list_thread_name                           build/components/finsh/libfinsh.a(cmd.o)
__fsym_list_timer                                 build/components/finsh/libfinsh.a(cmd.o)
__fsym_list_timer_desc                            build/components/finsh/libfinsh.a(cmd.o)
__fsym_list_timer_name                            build/components/finsh/libfinsh.a(cmd.o)
__fsym_set_date                                   build/bsp/rtc.o
__fsym_set_date_desc                              build/bsp/rtc.o
__fsym_set_date_name                              build/bsp/rtc.o
__fsym_set_time                                   build/bsp/rtc.o
__fsym_set_time_desc                              build/bsp/rtc.o
__fsym_set_time_name                              build/bsp/rtc.o
__fsym_version                                    build/components/finsh/libfinsh.a(cmd.o)
__fsym_version_desc                               build/components/finsh/libfinsh.a(cmd.o)
__fsym_version_name                               build/components/finsh/libfinsh.a(cmd.o)
__fsymtab_end                                     build/components/finsh/libfinsh.a(shell.o)
__fsymtab_start                                   build/components/finsh/libfinsh.a(shell.o)
__get_BASEPRI                                     build/bsp/Libraries/CMSIS/CM3/CoreSupport/core_cm3.o
__get_CONTROL                                     build/bsp/Libraries/CMSIS/CM3/CoreSupport/core_cm3.o
__get_FAULTMASK                                   build/bsp/Libraries/CMSIS/CM3/CoreSupport/core_cm3.o
__get_MSP                                         build/bsp/Libraries/CMSIS/CM3/CoreSupport/core_cm3.o
__get_PRIMASK                                     build/bsp/Libraries/CMSIS/CM3/CoreSupport/core_cm3.o
__get_PSP                                         build/bsp/Libraries/CMSIS/CM3/CoreSupport/core_cm3.o
__isleap                                          build/components/libc/minilibc/time.o
__muldf3                                          /opt/arm-2012.03/bin/../lib/gcc/arm-none-eabi/4.6.3/thumb2/libgcc.a(_arm_muldivdf3.o)
__register_frame_info                             /opt/arm-2012.03/bin/../lib/gcc/arm-none-eabi/4.6.3/thumb2/crtbegin.o
__set_BASEPRI                                     build/bsp/Libraries/CMSIS/CM3/CoreSupport/core_cm3.o
__set_CONTROL                                     build/bsp/Libraries/CMSIS/CM3/CoreSupport/core_cm3.o
__set_FAULTMASK                                   build/bsp/Libraries/CMSIS/CM3/CoreSupport/core_cm3.o
__set_MSP                                         build/bsp/Libraries/CMSIS/CM3/CoreSupport/core_cm3.o
__set_PRIMASK                                     build/bsp/Libraries/CMSIS/CM3/CoreSupport/core_cm3.o
__set_PSP                                         build/bsp/Libraries/CMSIS/CM3/CoreSupport/core_cm3.o
__spm                                             build/components/libc/minilibc/time.o
__subdf3                                          /opt/arm-2012.03/bin/../lib/gcc/arm-none-eabi/4.6.3/thumb2/libgcc.a(_arm_addsubdf3.o)
__vsym_dummy                                      build/components/finsh/libfinsh.a(cmd.o)
__vsym_dummy_desc                                 build/components/finsh/libfinsh.a(cmd.o)
__vsym_dummy_name                                 build/components/finsh/libfinsh.a(cmd.o)
__vsymtab_end                                     build/components/finsh/libfinsh.a(shell.o)
__vsymtab_start                                   build/components/finsh/libfinsh.a(shell.o)
_ctype                                            build/components/libc/minilibc/string.o
_ebss                                             build/bsp/Libraries/CMSIS/CM3/DeviceSupport/ST/STM32F10x/startup/gcc_ride7/startup_stm32f10x_hd.o
_edata                                            build/bsp/Libraries/CMSIS/CM3/DeviceSupport/ST/STM32F10x/startup/gcc_ride7/startup_stm32f10x_hd.o
_estack                                           build/bsp/Libraries/CMSIS/CM3/DeviceSupport/ST/STM32F10x/startup/gcc_ride7/startup_stm32f10x_hd.o
_fini                                             /opt/arm-2012.03/bin/../lib/gcc/arm-none-eabi/4.6.3/thumb2/crti.o
_init                                             /opt/arm-2012.03/bin/../lib/gcc/arm-none-eabi/4.6.3/thumb2/crti.o
_rt_errno                                         build/src/kservice.o
_sbss                                             build/bsp/Libraries/CMSIS/CM3/DeviceSupport/ST/STM32F10x/startup/gcc_ride7/startup_stm32f10x_hd.o
_sdata                                            build/bsp/Libraries/CMSIS/CM3/DeviceSupport/ST/STM32F10x/startup/gcc_ride7/startup_stm32f10x_hd.o
_sidata                                           build/bsp/Libraries/CMSIS/CM3/DeviceSupport/ST/STM32F10x/startup/gcc_ride7/startup_stm32f10x_hd.o
_syscall_table_begin                              build/components/finsh/libfinsh.a(symbol.o)
                                                  build/components/finsh/libfinsh.a(shell.o)
                                                  build/components/finsh/libfinsh.a(finsh_vm.o)
                                                  build/components/finsh/libfinsh.a(cmd.o)
_syscall_table_end                                build/components/finsh/libfinsh.a(symbol.o)
                                                  build/components/finsh/libfinsh.a(shell.o)
                                                  build/components/finsh/libfinsh.a(finsh_vm.o)
                                                  build/components/finsh/libfinsh.a(cmd.o)
_sysvar_table_begin                               build/components/finsh/libfinsh.a(symbol.o)
                                                  build/components/finsh/libfinsh.a(shell.o)
                                                  build/components/finsh/libfinsh.a(finsh_var.o)
                                                  build/components/finsh/libfinsh.a(cmd.o)
_sysvar_table_end                                 build/components/finsh/libfinsh.a(symbol.o)
                                                  build/components/finsh/libfinsh.a(shell.o)
                                                  build/components/finsh/libfinsh.a(finsh_var.o)
                                                  build/components/finsh/libfinsh.a(cmd.o)
asctime                                           build/components/libc/minilibc/time.o
asctime_r                                         build/components/libc/minilibc/time.o
assert_failed                                     build/bsp/startup.o
                                                  build/bsp/Libraries/STM32F10x_StdPeriph_Driver/src/misc.o
                                                  build/bsp/Libraries/STM32F10x_StdPeriph_Driver/src/stm32f10x_cec.o
                                                  build/bsp/Libraries/STM32F10x_StdPeriph_Driver/src/stm32f10x_can.o
                                                  build/bsp/Libraries/STM32F10x_StdPeriph_Driver/src/stm32f10x_dma.o
                                                  build/bsp/Libraries/STM32F10x_StdPeriph_Driver/src/stm32f10x_dbgmcu.o
                                                  build/bsp/Libraries/STM32F10x_StdPeriph_Driver/src/stm32f10x_usart.o
                                                  build/bsp/Libraries/STM32F10x_StdPeriph_Driver/src/stm32f10x_gpio.o
                                                  build/bsp/Libraries/STM32F10x_StdPeriph_Driver/src/stm32f10x_sdio.o
                                                  build/bsp/Libraries/STM32F10x_StdPeriph_Driver/src/stm32f10x_flash.o
                                                  build/bsp/Libraries/STM32F10x_StdPeriph_Driver/src/stm32f10x_spi.o
                                                  build/bsp/Libraries/STM32F10x_StdPeriph_Driver/src/stm32f10x_iwdg.o
                                                  build/bsp/Libraries/STM32F10x_StdPeriph_Driver/src/stm32f10x_tim.o
                                                  build/bsp/Libraries/STM32F10x_StdPeriph_Driver/src/stm32f10x_fsmc.o
                                                  build/bsp/Libraries/STM32F10x_StdPeriph_Driver/src/stm32f10x_rtc.o
                                                  build/bsp/Libraries/STM32F10x_StdPeriph_Driver/src/stm32f10x_dac.o
                                                  build/bsp/Libraries/STM32F10x_StdPeriph_Driver/src/stm32f10x_adc.o
                                                  build/bsp/Libraries/STM32F10x_StdPeriph_Driver/src/stm32f10x_i2c.o
                                                  build/bsp/Libraries/STM32F10x_StdPeriph_Driver/src/stm32f10x_bkp.o
                                                  build/bsp/Libraries/STM32F10x_StdPeriph_Driver/src/stm32f10x_exti.o
                                                  build/bsp/Libraries/STM32F10x_StdPeriph_Driver/src/stm32f10x_pwr.o
                                                  build/bsp/Libraries/STM32F10x_StdPeriph_Driver/src/stm32f10x_wwdg.o
                                                  build/bsp/Libraries/STM32F10x_StdPeriph_Driver/src/stm32f10x_rcc.o
atoi                                              build/components/libc/minilibc/stdlib.o
                                                  build/components/finsh/libfinsh.a(finsh_token.o)
calloc                                            build/components/libc/minilibc/stdlib.o
cos                                               build/components/libc/minilibc/math.o
ctime                                             build/components/libc/minilibc/time.o
                                                  build/bsp/rtc.o
finsh_auto_complete                               build/components/finsh/libfinsh.a(shell.o)
finsh_compile_pc                                  build/components/finsh/libfinsh.a(finsh_compiler.o)
finsh_compile_sp                                  build/components/finsh/libfinsh.a(finsh_compiler.o)
finsh_compiler_run                                build/components/finsh/libfinsh.a(finsh_compiler.o)
                                                  build/components/finsh/libfinsh.a(shell.o)
finsh_errno                                       build/components/finsh/libfinsh.a(finsh_error.o)
                                                  build/components/finsh/libfinsh.a(shell.o)
finsh_error_init                                  build/components/finsh/libfinsh.a(finsh_error.o)
                                                  build/components/finsh/libfinsh.a(finsh_init.o)
finsh_error_set                                   build/components/finsh/libfinsh.a(finsh_error.o)
                                                  build/components/finsh/libfinsh.a(finsh_token.o)
                                                  build/components/finsh/libfinsh.a(finsh_parser.o)
                                                  build/components/finsh/libfinsh.a(finsh_node.o)
                                                  build/components/finsh/libfinsh.a(finsh_compiler.o)
finsh_error_string                                build/components/finsh/libfinsh.a(finsh_error.o)
                                                  build/components/finsh/libfinsh.a(shell.o)
finsh_flush                                       build/components/finsh/libfinsh.a(finsh_init.o)
                                                  build/components/finsh/libfinsh.a(shell.o)
finsh_get_device                                  build/components/finsh/libfinsh.a(shell.o)
finsh_get_echo                                    build/components/finsh/libfinsh.a(shell.o)
finsh_handle_history                              build/components/finsh/libfinsh.a(shell.o)
finsh_heap                                        build/components/finsh/libfinsh.a(finsh_heap.o)
finsh_heap_allocate                               build/components/finsh/libfinsh.a(finsh_heap.o)
                                                  build/components/finsh/libfinsh.a(finsh_node.o)
finsh_heap_free                                   build/components/finsh/libfinsh.a(finsh_heap.o)
finsh_heap_init                                   build/components/finsh/libfinsh.a(finsh_heap.o)
                                                  build/components/finsh/libfinsh.a(finsh_init.o)
finsh_init                                        build/components/finsh/libfinsh.a(finsh_init.o)
                                                  build/components/finsh/libfinsh.a(shell.o)
finsh_node_allocate                               build/components/finsh/libfinsh.a(finsh_node.o)
                                                  build/components/finsh/libfinsh.a(finsh_parser.o)
finsh_node_init                                   build/components/finsh/libfinsh.a(finsh_node.o)
                                                  build/components/finsh/libfinsh.a(finsh_init.o)
finsh_node_new_char                               build/components/finsh/libfinsh.a(finsh_node.o)
                                                  build/components/finsh/libfinsh.a(finsh_parser.o)
finsh_node_new_id                                 build/components/finsh/libfinsh.a(finsh_node.o)
                                                  build/components/finsh/libfinsh.a(finsh_parser.o)
finsh_node_new_int                                build/components/finsh/libfinsh.a(finsh_node.o)
                                                  build/components/finsh/libfinsh.a(finsh_parser.o)
finsh_node_new_long                               build/components/finsh/libfinsh.a(finsh_node.o)
                                                  build/components/finsh/libfinsh.a(finsh_parser.o)
finsh_node_new_ptr                                build/components/finsh/libfinsh.a(finsh_node.o)
                                                  build/components/finsh/libfinsh.a(finsh_parser.o)
finsh_node_new_string                             build/components/finsh/libfinsh.a(finsh_node.o)
                                                  build/components/finsh/libfinsh.a(finsh_parser.o)
finsh_parser_init                                 build/components/finsh/libfinsh.a(finsh_parser.o)
                                                  build/components/finsh/libfinsh.a(finsh_init.o)
finsh_parser_run                                  build/components/finsh/libfinsh.a(finsh_parser.o)
                                                  build/components/finsh/libfinsh.a(shell.o)
finsh_pc                                          build/components/finsh/libfinsh.a(finsh_ops.o)
                                                  build/components/finsh/libfinsh.a(finsh_vm.o)
finsh_push_history                                build/components/finsh/libfinsh.a(shell.o)
finsh_reset                                       build/components/finsh/libfinsh.a(finsh_init.o)
finsh_run_line                                    build/components/finsh/libfinsh.a(shell.o)
finsh_set_device                                  build/components/finsh/libfinsh.a(shell.o)
                                                  build/bsp/startup.o
finsh_set_echo                                    build/components/finsh/libfinsh.a(shell.o)
finsh_sp                                          build/components/finsh/libfinsh.a(finsh_ops.o)
                                                  build/components/finsh/libfinsh.a(finsh_vm.o)
finsh_stack_bottom                                build/components/finsh/libfinsh.a(finsh_init.o)
                                                  build/components/finsh/libfinsh.a(shell.o)
finsh_syscall_append                              build/components/finsh/libfinsh.a(finsh_vm.o)
finsh_syscall_lookup                              build/components/finsh/libfinsh.a(finsh_vm.o)
                                                  build/components/finsh/libfinsh.a(finsh_node.o)
finsh_system_function_init                        build/components/finsh/libfinsh.a(shell.o)
finsh_system_init                                 build/components/finsh/libfinsh.a(shell.o)
                                                  build/bsp/startup.o
finsh_system_var_init                             build/components/finsh/libfinsh.a(shell.o)
finsh_sysvar_append                               build/components/finsh/libfinsh.a(finsh_var.o)
finsh_sysvar_lookup                               build/components/finsh/libfinsh.a(finsh_var.o)
                                                  build/components/finsh/libfinsh.a(finsh_node.o)
finsh_thread_entry                                build/components/finsh/libfinsh.a(shell.o)
finsh_token_get_token                             build/components/finsh/libfinsh.a(finsh_token.o)
finsh_token_init                                  build/components/finsh/libfinsh.a(finsh_token.o)
                                                  build/components/finsh/libfinsh.a(finsh_parser.o)
finsh_token_token                                 build/components/finsh/libfinsh.a(finsh_token.o)
                                                  build/components/finsh/libfinsh.a(finsh_parser.o)
finsh_var_delete                                  build/components/finsh/libfinsh.a(finsh_var.o)
finsh_var_init                                    build/components/finsh/libfinsh.a(finsh_var.o)
                                                  build/components/finsh/libfinsh.a(finsh_init.o)
finsh_var_insert                                  build/components/finsh/libfinsh.a(finsh_var.o)
                                                  build/components/finsh/libfinsh.a(finsh_parser.o)
finsh_var_lookup                                  build/components/finsh/libfinsh.a(finsh_var.o)
                                                  build/components/finsh/libfinsh.a(finsh_node.o)
finsh_vm_run                                      build/components/finsh/libfinsh.a(finsh_vm.o)
                                                  build/components/finsh/libfinsh.a(shell.o)
finsh_vm_stack                                    build/components/finsh/libfinsh.a(finsh_init.o)
                                                  build/components/finsh/libfinsh.a(finsh_compiler.o)
                                                  build/components/finsh/libfinsh.a(finsh_vm.o)
free                                              build/components/libc/minilibc/stdlib.o
g_pfnVectors                                      build/bsp/Libraries/CMSIS/CM3/DeviceSupport/ST/STM32F10x/startup/gcc_ride7/startup_stm32f10x_hd.o
gettimeofday                                      build/components/libc/minilibc/time.o
global_errno                                      build/components/finsh/libfinsh.a(finsh_error.o)
global_node_table                                 build/components/finsh/libfinsh.a(finsh_node.o)
global_syscall_list                               build/components/finsh/libfinsh.a(finsh_vm.o)
                                                  build/components/finsh/libfinsh.a(cmd.o)
global_sysvar_list                                build/components/finsh/libfinsh.a(finsh_var.o)
                                                  build/components/finsh/libfinsh.a(cmd.o)
global_variable                                   build/components/finsh/libfinsh.a(finsh_heap.o)
                                                  build/components/finsh/libfinsh.a(finsh_var.o)
gmtime_r                                          build/components/libc/minilibc/time.o
hello                                             build/components/finsh/libfinsh.a(cmd.o)
isalpha                                           build/components/libc/minilibc/ctype.o
                                                  build/components/finsh/libfinsh.a(finsh_token.o)
isdigit                                           build/components/libc/minilibc/ctype.o
isprint                                           build/components/libc/minilibc/ctype.o
led                                               build/bsp/led.o
list                                              build/components/finsh/libfinsh.a(cmd.o)
list_date                                         build/bsp/rtc.o
list_device                                       build/components/finsh/libfinsh.a(cmd.o)
list_event                                        build/components/finsh/libfinsh.a(cmd.o)
list_mailbox                                      build/components/finsh/libfinsh.a(cmd.o)
list_mem                                          build/src/mem.o
list_mempool                                      build/components/finsh/libfinsh.a(cmd.o)
list_msgqueue                                     build/components/finsh/libfinsh.a(cmd.o)
list_mutex                                        build/components/finsh/libfinsh.a(cmd.o)
list_prefix                                       build/components/finsh/libfinsh.a(cmd.o)
                                                  build/components/finsh/libfinsh.a(shell.o)
list_sem                                          build/components/finsh/libfinsh.a(cmd.o)
list_thread                                       build/components/finsh/libfinsh.a(cmd.o)
                                                  build/libcpu/arm/cortex-m3/cpuport.o
                                                  build/src/scheduler.o
list_timer                                        build/components/finsh/libfinsh.a(cmd.o)
localtime                                         build/components/libc/minilibc/time.o
                                                  build/bsp/rtc.o
localtime_r                                       build/components/libc/minilibc/time.o
main                                              build/bsp/startup.o
                                                  build/bsp/Libraries/CMSIS/CM3/DeviceSupport/ST/STM32F10x/startup/gcc_ride7/startup_stm32f10x_hd.o
malloc                                            build/components/libc/minilibc/stdlib.o
memcmp                                            build/src/kservice.o
memcpy                                            build/src/kservice.o
                                                  build/components/finsh/libfinsh.a(shell.o)
memmove                                           build/src/kservice.o
memset                                            build/src/kservice.o
                                                  build/components/finsh/libfinsh.a(finsh_heap.o)
                                                  build/components/finsh/libfinsh.a(finsh_token.o)
                                                  build/components/finsh/libfinsh.a(finsh_parser.o)
                                                  build/components/finsh/libfinsh.a(finsh_node.o)
                                                  build/components/finsh/libfinsh.a(finsh_compiler.o)
                                                  build/components/finsh/libfinsh.a(shell.o)
                                                  build/components/finsh/libfinsh.a(finsh_var.o)
mktime                                            build/components/libc/minilibc/time.o
                                                  build/bsp/rtc.o
op_table                                          build/components/finsh/libfinsh.a(finsh_ops.o)
                                                  build/components/finsh/libfinsh.a(finsh_vm.o)
qsort                                             build/components/libc/minilibc/qsort.o
rand                                              build/components/libc/minilibc/rand.o
rand_r                                            build/components/libc/minilibc/rand.o
random                                            build/components/libc/minilibc/rand.o
realloc                                           build/components/libc/minilibc/stdlib.o
rt_application_init                               build/bsp/application.o
                                                  build/bsp/startup.o
rt_calloc                                         build/src/mem.o
                                                  build/components/libc/minilibc/stdlib.o
rt_console_get_device                             build/src/kservice.o
rt_console_set_device                             build/src/kservice.o
                                                  build/bsp/board.o
rt_current_priority                               build/src/scheduler.o
rt_current_thread                                 build/libcpu/arm/cortex-m3/cpuport.o
                                                  build/src/thread.o
                                                  build/src/scheduler.o
rt_device_close                                   build/src/device.o
                                                  build/components/finsh/libfinsh.a(shell.o)
                                                  build/src/kservice.o
rt_device_control                                 build/src/device.o
                                                  build/components/libc/minilibc/time.o
                                                  build/bsp/rtc.o
rt_device_find                                    build/src/device.o
                                                  build/components/libc/minilibc/time.o
                                                  build/components/finsh/libfinsh.a(shell.o)
                                                  build/src/kservice.o
                                                  build/bsp/rtc.o
rt_device_init                                    build/src/device.o
rt_device_init_all                                build/src/device.o
                                                  build/bsp/startup.o
rt_device_open                                    build/src/device.o
                                                  build/components/finsh/libfinsh.a(shell.o)
                                                  build/src/kservice.o
rt_device_read                                    build/src/device.o
                                                  build/components/finsh/libfinsh.a(shell.o)
rt_device_register                                build/src/device.o
                                                  build/bsp/serial.o
                                                  build/bsp/rtc.o
rt_device_set_rx_indicate                         build/src/device.o
                                                  build/components/finsh/libfinsh.a(shell.o)
rt_device_set_tx_complete                         build/src/device.o
rt_device_unregister                              build/src/device.o
rt_device_write                                   build/src/device.o
                                                  build/src/kservice.o
rt_enter_critical                                 build/src/scheduler.o
                                                  build/src/thread.o
                                                  build/src/object.o
                                                  build/src/device.o
rt_event_control                                  build/src/ipc.o
rt_event_create                                   build/src/ipc.o
rt_event_delete                                   build/src/ipc.o
rt_event_detach                                   build/src/ipc.o
rt_event_init                                     build/src/ipc.o
rt_event_recv                                     build/src/ipc.o
rt_event_send                                     build/src/ipc.o
rt_exit_critical                                  build/src/scheduler.o
                                                  build/src/thread.o
                                                  build/src/object.o
                                                  build/src/device.o
rt_free                                           build/src/mem.o
                                                  build/components/libc/minilibc/stdlib.o
                                                  build/src/object.o
                                                  build/src/mempool.o
                                                  build/src/kservice.o
                                                  build/src/ipc.o
                                                  build/src/idle.o
rt_free_align                                     build/src/kservice.o
rt_free_sethook                                   build/src/mem.o
rt_get_errno                                      build/src/kservice.o
rt_hw_backtrace                                   build/libcpu/arm/common/backtrace.o
rt_hw_board_init                                  build/bsp/board.o
                                                  build/bsp/startup.o
rt_hw_console_output                              build/src/kservice.o
rt_hw_context_switch                              build/libcpu/arm/cortex-m3/context_gcc.o
                                                  build/src/scheduler.o
rt_hw_context_switch_interrupt                    build/libcpu/arm/cortex-m3/context_gcc.o
                                                  build/src/scheduler.o
rt_hw_context_switch_to                           build/libcpu/arm/cortex-m3/context_gcc.o
                                                  build/src/scheduler.o
rt_hw_cpu_shutdown                                build/libcpu/arm/cortex-m3/cpuport.o
rt_hw_hard_fault_exception                        build/libcpu/arm/cortex-m3/cpuport.o
                                                  build/libcpu/arm/cortex-m3/context_gcc.o
rt_hw_interrupt_check                             build/libcpu/arm/cortex-m3/context_gcc.o
rt_hw_interrupt_disable                           build/libcpu/arm/cortex-m3/context_gcc.o
                                                  build/src/timer.o
                                                  build/src/thread.o
                                                  build/src/scheduler.o
                                                  build/src/object.o
                                                  build/src/mempool.o
                                                  build/src/mem.o
                                                  build/src/irq.o
                                                  build/src/ipc.o
                                                  build/src/idle.o
                                                  build/src/clock.o
                                                  build/bsp/serial.o
                                                  build/bsp/startup.o
rt_hw_interrupt_enable                            build/libcpu/arm/cortex-m3/context_gcc.o
                                                  build/src/timer.o
                                                  build/src/thread.o
                                                  build/src/scheduler.o
                                                  build/src/object.o
                                                  build/src/mempool.o
                                                  build/src/mem.o
                                                  build/src/irq.o
                                                  build/src/ipc.o
                                                  build/src/idle.o
                                                  build/src/clock.o
                                                  build/bsp/serial.o
rt_hw_interrupt_thread_switch                     build/libcpu/arm/cortex-m3/context_gcc.o
rt_hw_led_init                                    build/bsp/led.o
                                                  build/bsp/application.o
rt_hw_led_off                                     build/bsp/led.o
                                                  build/bsp/application.o
rt_hw_led_on                                      build/bsp/led.o
                                                  build/bsp/application.o
rt_hw_rtc_init                                    build/bsp/rtc.o
                                                  build/bsp/startup.o
rt_hw_serial_dma_tx_isr                           build/bsp/serial.o
rt_hw_serial_isr                                  build/bsp/serial.o
                                                  build/bsp/stm32f10x_it.o
rt_hw_serial_register                             build/bsp/serial.o
                                                  build/bsp/usart.o
rt_hw_show_memory                                 build/libcpu/arm/common/showmem.o
rt_hw_stack_init                                  build/libcpu/arm/cortex-m3/cpuport.o
                                                  build/src/thread.o
rt_hw_timer_handler                               build/bsp/board.o
                                                  build/bsp/stm32f10x_it.o
rt_hw_usart_init                                  build/bsp/usart.o
                                                  build/bsp/board.o
rt_init_thread_entry                              build/bsp/application.o
rt_interrupt_enter                                build/src/irq.o
                                                  build/bsp/stm32f10x_it.o
                                                  build/bsp/board.o
rt_interrupt_from_thread                          build/libcpu/arm/cortex-m3/context_gcc.o
                                                  build/libcpu/arm/cortex-m3/cpuport.o
rt_interrupt_get_nest                             build/src/irq.o
                                                  build/src/object.o
                                                  build/src/mempool.o
                                                  build/src/mem.o
                                                  build/src/kservice.o
                                                  build/src/ipc.o
                                                  build/src/idle.o
rt_interrupt_leave                                build/src/irq.o
                                                  build/bsp/stm32f10x_it.o
                                                  build/bsp/board.o
rt_interrupt_nest                                 build/src/scheduler.o
                                                  build/src/object.o
                                                  build/src/irq.o
rt_interrupt_to_thread                            build/libcpu/arm/cortex-m3/context_gcc.o
                                                  build/libcpu/arm/cortex-m3/cpuport.o
rt_kprintf                                        build/src/kservice.o
                                                  build/components/finsh/libfinsh.a(shell.o)
                                                  build/components/finsh/libfinsh.a(cmd.o)
                                                  build/libcpu/arm/common/showmem.o
                                                  build/libcpu/arm/common/backtrace.o
                                                  build/libcpu/arm/cortex-m3/cpuport.o
                                                  build/src/timer.o
                                                  build/src/thread.o
                                                  build/src/scheduler.o
                                                  build/src/object.o
                                                  build/src/mempool.o
                                                  build/src/mem.o
                                                  build/src/ipc.o
                                                  build/src/idle.o
                                                  build/src/device.o
                                                  build/bsp/serial.o
                                                  build/bsp/rtc.o
                                                  build/bsp/startup.o
rt_lowest_bitmap                                  build/src/scheduler.o
rt_malloc                                         build/src/mem.o
                                                  build/components/libc/minilibc/stdlib.o
                                                  build/components/finsh/libfinsh.a(shell.o)
                                                  build/components/finsh/libfinsh.a(finsh_vm.o)
                                                  build/components/finsh/libfinsh.a(finsh_var.o)
                                                  build/src/thread.o
                                                  build/src/object.o
                                                  build/src/mempool.o
                                                  build/src/kservice.o
                                                  build/src/ipc.o
rt_malloc_align                                   build/src/kservice.o
rt_malloc_sethook                                 build/src/mem.o
rt_mb_control                                     build/src/ipc.o
rt_mb_create                                      build/src/ipc.o
rt_mb_delete                                      build/src/ipc.o
rt_mb_detach                                      build/src/ipc.o
rt_mb_init                                        build/src/ipc.o
rt_mb_recv                                        build/src/ipc.o
rt_mb_send                                        build/src/ipc.o
rt_mb_send_wait                                   build/src/ipc.o
rt_memcmp                                         build/src/kservice.o
rt_memcpy                                         build/src/kservice.o
                                                  build/src/mem.o
                                                  build/src/ipc.o
rt_memmove                                        build/src/kservice.o
rt_memory_info                                    build/src/mem.o
rt_memset                                         build/src/kservice.o
                                                  build/src/thread.o
                                                  build/src/mem.o
                                                  build/bsp/serial.o
rt_mp_alloc                                       build/src/mempool.o
                                                  build/bsp/serial.o
rt_mp_alloc_sethook                               build/src/mempool.o
rt_mp_create                                      build/src/mempool.o
rt_mp_delete                                      build/src/mempool.o
rt_mp_detach                                      build/src/mempool.o
rt_mp_free                                        build/src/mempool.o
                                                  build/bsp/serial.o
rt_mp_free_sethook                                build/src/mempool.o
rt_mp_init                                        build/src/mempool.o
                                                  build/bsp/serial.o
rt_mq_control                                     build/src/ipc.o
rt_mq_create                                      build/src/ipc.o
rt_mq_delete                                      build/src/ipc.o
rt_mq_detach                                      build/src/ipc.o
rt_mq_init                                        build/src/ipc.o
rt_mq_recv                                        build/src/ipc.o
rt_mq_send                                        build/src/ipc.o
rt_mq_urgent                                      build/src/ipc.o
rt_mutex_control                                  build/src/ipc.o
rt_mutex_create                                   build/src/ipc.o
rt_mutex_delete                                   build/src/ipc.o
rt_mutex_detach                                   build/src/ipc.o
rt_mutex_init                                     build/src/ipc.o
rt_mutex_release                                  build/src/ipc.o
rt_mutex_take                                     build/src/ipc.o
rt_object_allocate                                build/src/object.o
                                                  build/src/timer.o
                                                  build/src/thread.o
                                                  build/src/mempool.o
                                                  build/src/ipc.o
rt_object_attach_sethook                          build/src/object.o
rt_object_container                               build/src/object.o
                                                  build/components/finsh/libfinsh.a(cmd.o)
                                                  build/src/thread.o
                                                  build/src/device.o
rt_object_delete                                  build/src/object.o
                                                  build/src/timer.o
                                                  build/src/thread.o
                                                  build/src/mempool.o
                                                  build/src/ipc.o
                                                  build/src/idle.o
rt_object_detach                                  build/src/object.o
                                                  build/src/timer.o
                                                  build/src/thread.o
                                                  build/src/mempool.o
                                                  build/src/ipc.o
                                                  build/src/device.o
rt_object_detach_sethook                          build/src/object.o
rt_object_find                                    build/src/object.o
rt_object_get_information                         build/src/object.o
rt_object_init                                    build/src/object.o
                                                  build/src/timer.o
                                                  build/src/thread.o
                                                  build/src/mempool.o
                                                  build/src/ipc.o
                                                  build/src/device.o
rt_object_is_systemobject                         build/src/object.o
                                                  build/src/thread.o
                                                  build/src/idle.o
rt_object_put_hook                                build/src/timer.o
                                                  build/src/object.o
                                                  build/src/ipc.o
rt_object_put_sethook                             build/src/object.o
rt_object_take_hook                               build/src/timer.o
                                                  build/src/object.o
                                                  build/src/ipc.o
rt_object_take_sethook                            build/src/object.o
rt_object_trytake_hook                            build/src/object.o
                                                  build/src/ipc.o
rt_object_trytake_sethook                         build/src/object.o
rt_realloc                                        build/src/mem.o
                                                  build/components/libc/minilibc/stdlib.o
rt_schedule                                       build/src/scheduler.o
                                                  build/src/thread.o
                                                  build/src/mempool.o
                                                  build/src/ipc.o
rt_schedule_insert_thread                         build/src/scheduler.o
                                                  build/src/thread.o
rt_schedule_remove_thread                         build/src/scheduler.o
                                                  build/src/thread.o
rt_scheduler_sethook                              build/src/scheduler.o
rt_sem_control                                    build/src/ipc.o
rt_sem_create                                     build/src/ipc.o
rt_sem_delete                                     build/src/ipc.o
rt_sem_detach                                     build/src/ipc.o
rt_sem_init                                       build/src/ipc.o
                                                  build/components/finsh/libfinsh.a(shell.o)
                                                  build/src/mem.o
rt_sem_release                                    build/src/ipc.o
                                                  build/components/finsh/libfinsh.a(shell.o)
                                                  build/src/mem.o
rt_sem_take                                       build/src/ipc.o
                                                  build/components/finsh/libfinsh.a(shell.o)
                                                  build/src/mem.o
rt_sem_trytake                                    build/src/ipc.o
rt_set_errno                                      build/src/kservice.o
                                                  build/src/device.o
                                                  build/bsp/serial.o
rt_show_version                                   build/src/kservice.o
                                                  build/components/finsh/libfinsh.a(cmd.o)
                                                  build/bsp/startup.o
rt_snprintf                                       build/src/kservice.o
rt_sprintf                                        build/src/kservice.o
rt_strcasecmp                                     build/src/kservice.o
rt_strcmp                                         build/src/kservice.o
rt_strdup                                         build/src/kservice.o
rt_strlen                                         build/src/kservice.o
                                                  build/components/libc/minilibc/string.o
rt_strncmp                                        build/src/kservice.o
                                                  build/src/thread.o
                                                  build/src/object.o
                                                  build/src/device.o
rt_strncpy                                        build/src/kservice.o
                                                  build/components/libc/minilibc/string.o
                                                  build/components/finsh/libfinsh.a(cmd.o)
                                                  build/src/object.o
rt_strstr                                         build/src/kservice.o
rt_system_heap_init                               build/src/mem.o
                                                  build/bsp/startup.o
rt_system_object_init                             build/src/object.o
                                                  build/bsp/startup.o
rt_system_scheduler_init                          build/src/scheduler.o
                                                  build/bsp/startup.o
rt_system_scheduler_start                         build/src/scheduler.o
                                                  build/bsp/startup.o
rt_system_tick_init                               build/src/clock.o
                                                  build/bsp/startup.o
rt_system_timer_init                              build/src/timer.o
                                                  build/bsp/startup.o
rt_system_timer_thread_init                       build/src/timer.o
                                                  build/bsp/startup.o
rt_thread_control                                 build/src/thread.o
                                                  build/src/ipc.o
rt_thread_create                                  build/src/thread.o
                                                  build/bsp/application.o
rt_thread_defunct                                 build/src/thread.o
                                                  build/src/scheduler.o
                                                  build/src/idle.o
rt_thread_delay                                   build/src/thread.o
                                                  build/bsp/application.o
rt_thread_delete                                  build/src/thread.o
rt_thread_detach                                  build/src/thread.o
rt_thread_find                                    build/src/thread.o
rt_thread_idle_excute                             build/src/idle.o
rt_thread_idle_init                               build/src/idle.o
                                                  build/bsp/startup.o
rt_thread_idle_sethook                            build/src/idle.o
rt_thread_init                                    build/src/thread.o
                                                  build/components/finsh/libfinsh.a(shell.o)
                                                  build/src/idle.o
                                                  build/bsp/application.o
rt_thread_priority_table                          build/src/thread.o
                                                  build/src/scheduler.o
rt_thread_ready_priority_group                    build/src/scheduler.o
rt_thread_resume                                  build/src/thread.o
                                                  build/src/mempool.o
                                                  build/src/ipc.o
rt_thread_self                                    build/src/thread.o
                                                  build/src/mempool.o
                                                  build/src/kservice.o
                                                  build/src/ipc.o
                                                  build/src/device.o
                                                  build/src/clock.o
rt_thread_sleep                                   build/src/thread.o
rt_thread_startup                                 build/src/thread.o
                                                  build/components/finsh/libfinsh.a(shell.o)
                                                  build/src/idle.o
                                                  build/bsp/application.o
rt_thread_suspend                                 build/src/thread.o
                                                  build/src/mempool.o
                                                  build/src/ipc.o
rt_thread_switch_interrupt_flag                   build/libcpu/arm/cortex-m3/context_gcc.o
                                                  build/libcpu/arm/cortex-m3/cpuport.o
rt_thread_timeout                                 build/src/thread.o
rt_thread_yield                                   build/src/thread.o
                                                  build/src/clock.o
rt_tick_from_millisecond                          build/src/clock.o
rt_tick_get                                       build/src/clock.o
                                                  build/components/finsh/libfinsh.a(cmd.o)
                                                  build/src/timer.o
                                                  build/src/ipc.o
rt_tick_increase                                  build/src/clock.o
                                                  build/bsp/board.o
rt_tick_set                                       build/src/clock.o
rt_timer_check                                    build/src/timer.o
                                                  build/src/clock.o
rt_timer_control                                  build/src/timer.o
                                                  build/src/thread.o
                                                  build/src/mempool.o
                                                  build/src/ipc.o
rt_timer_create                                   build/src/timer.o
rt_timer_delete                                   build/src/timer.o
rt_timer_detach                                   build/src/timer.o
                                                  build/src/thread.o
rt_timer_init                                     build/src/timer.o
                                                  build/src/thread.o
rt_timer_next_timeout_tick                        build/src/timer.o
rt_timer_start                                    build/src/timer.o
                                                  build/src/thread.o
                                                  build/src/mempool.o
                                                  build/src/ipc.o
rt_timer_stop                                     build/src/timer.o
rt_timer_timeout_sethook                          build/src/timer.o
rt_vsprintf                                       build/src/kservice.o
rtthread_startup                                  build/bsp/startup.o
set_date                                          build/bsp/rtc.o
set_time                                          build/bsp/rtc.o
shell                                             build/components/finsh/libfinsh.a(shell.o)
simple_strtol                                     build/components/libc/minilibc/string.o
simple_strtoll                                    build/components/libc/minilibc/string.o
simple_strtoul                                    build/components/libc/minilibc/string.o
simple_strtoull                                   build/components/libc/minilibc/string.o
sin                                               build/components/libc/minilibc/math.o
snprintf                                          build/src/kservice.o
sprintf                                           build/src/kservice.o
srand                                             build/components/libc/minilibc/rand.o
srandom                                           build/components/libc/minilibc/rand.o
sscanf                                            build/components/libc/minilibc/string.o
strcasecmp                                        build/src/kservice.o
strcat                                            build/components/libc/minilibc/string.o
strchr                                            build/components/libc/minilibc/string.o
strcmp                                            build/components/libc/minilibc/string.o
                                                  build/components/finsh/libfinsh.a(finsh_token.o)
                                                  build/components/finsh/libfinsh.a(finsh_vm.o)
                                                  build/components/finsh/libfinsh.a(finsh_var.o)
strcpy                                            build/components/libc/minilibc/string.o
strcspn                                           build/components/libc/minilibc/string.o
strdup                                            build/src/kservice.o
                                                  build/components/finsh/libfinsh.a(finsh_vm.o)
                                                  build/components/finsh/libfinsh.a(finsh_var.o)
strlcpy                                           build/components/libc/minilibc/string.o
strlen                                            build/src/kservice.o
                                                  build/components/libc/minilibc/string.o
                                                  build/components/finsh/libfinsh.a(finsh_token.o)
                                                  build/components/finsh/libfinsh.a(finsh_node.o)
                                                  build/components/finsh/libfinsh.a(shell.o)
                                                  build/components/finsh/libfinsh.a(finsh_vm.o)
                                                  build/components/finsh/libfinsh.a(finsh_var.o)
                                                  build/components/finsh/libfinsh.a(cmd.o)
strncasecmp                                       build/components/libc/minilibc/string.o
strncat                                           build/components/libc/minilibc/string.o
strncmp                                           build/components/libc/minilibc/string.o
                                                  build/src/kservice.o
                                                  build/components/finsh/libfinsh.a(finsh_vm.o)
                                                  build/components/finsh/libfinsh.a(finsh_var.o)
strncpy                                           build/components/libc/minilibc/string.o
                                                  build/src/kservice.o
                                                  build/components/finsh/libfinsh.a(finsh_token.o)
                                                  build/components/finsh/libfinsh.a(finsh_parser.o)
                                                  build/components/finsh/libfinsh.a(finsh_node.o)
                                                  build/components/finsh/libfinsh.a(finsh_var.o)
strrchr                                           build/components/libc/minilibc/string.o
strspn                                            build/components/libc/minilibc/string.o
strstr                                            build/src/kservice.o
strtok                                            build/components/libc/minilibc/string.o
strtok_r                                          build/components/libc/minilibc/string.o
text_segment                                      build/components/finsh/libfinsh.a(finsh_compiler.o)
                                                  build/components/finsh/libfinsh.a(finsh_vm.o)
time                                              build/bsp/rtc.o
timegm                                            build/components/libc/minilibc/time.o
token_get_string                                  build/components/finsh/libfinsh.a(finsh_token.o)
tolower                                           build/components/libc/minilibc/string.o
toupper                                           build/components/libc/minilibc/string.o
uart1                                             build/bsp/usart.o
uart1_device                                      build/bsp/usart.o
                                                  build/bsp/stm32f10x_it.o
uart1_int_rx                                      build/bsp/usart.o
version                                           build/components/finsh/libfinsh.a(cmd.o)
vsprintf                                          build/src/kservice.o
vsscanf                                           build/components/libc/minilibc/string.o
